 scrypt

 Timestamp is 60af50ab (Thu May 27 16:56:27 2021)

 Preferred load address is 0000000180000000

 Start         Length     Name                   Class
 0001:00000000 0001e9f0H .text$mn                CODE
 0001:0001e9f0 00000020H .text$mn$00             CODE
 0001:0001ea10 000007e0H .text$x                 CODE
 0002:00000000 00000270H .idata$5                DATA
 0002:00000270 00000010H .00cfg                  DATA
 0002:00000280 00000008H .CRT$XCA                DATA
 0002:00000288 00000008H .CRT$XCU                DATA
 0002:00000290 00000008H .CRT$XCZ                DATA
 0002:00000298 00000008H .CRT$XIA                DATA
 0002:000002a0 00000018H .CRT$XIC                DATA
 0002:000002b8 00000008H .CRT$XIZ                DATA
 0002:000002c0 00000008H .CRT$XPA                DATA
 0002:000002c8 00000010H .CRT$XPX                DATA
 0002:000002d8 00000008H .CRT$XPXA               DATA
 0002:000002e0 00000008H .CRT$XPZ                DATA
 0002:000002e8 00000008H .CRT$XTA                DATA
 0002:000002f0 00000010H .CRT$XTZ                DATA
 0002:000002f8 00000000H .gfids$y                DATA
 0002:00000300 00009510H .rdata                  DATA
 0002:00009810 0000037cH .rdata$r                DATA
 0002:00009b8c 000003dcH .rdata$zzzdbg           DATA
 0002:00009f68 00000008H .rtc$IAA                DATA
 0002:00009f70 00000008H .rtc$IZZ                DATA
 0002:00009f78 00000008H .rtc$TAA                DATA
 0002:00009f80 00000008H .rtc$TZZ                DATA
 0002:00009f88 00001bf8H .xdata                  DATA
 0002:0000bb80 000001dcH .xdata$x                DATA
 0002:0000bd5c 00000020H .didat$2                DATA
 0002:0000bd7c 00000024H .didat$3                DATA
 0002:0000bda0 00000180H .didat$4                DATA
 0002:0000bf20 00000cb8H .didat$6                DATA
 0002:0000cbd8 00000188H .didat$7                DATA
 0002:0000cd60 00000050H .edata                  DATA
 0002:0000cdb0 00000014H .idata$2                DATA
 0002:0000cdc4 00000014H .idata$3                DATA
 0002:0000cdd8 00000270H .idata$4                DATA
 0002:0000d048 000005acH .idata$6                DATA
 0003:00000000 00000b40H .data                   DATA
 0003:00000b40 00000118H .data$r                 DATA
 0003:00000c58 00000188H .didat$5                DATA
 0003:00000de0 00001228H .bss                    DATA
 0004:00000000 00001a58H .pdata                  DATA
 0005:00000000 00000094H _RDATA                  DATA
 0006:00000000 00000060H .rsrc$01                DATA
 0006:00000060 00000180H .rsrc$02                DATA

  Address         Publics by Value              Rva+Base               Lib:Object

 0000:00000000       __guard_fids_count         0000000000000000     <absolute>
 0000:00000000       __guard_longjmp_count      0000000000000000     <absolute>
 0000:00000000       __hybrid_code_map          0000000000000000     <absolute>
 0000:00000000       __guard_iat_count          0000000000000000     <absolute>
 0000:00000000       __guard_longjmp_table      0000000000000000     <absolute>
 0000:00000000       __volatile_metadata        0000000000000000     <absolute>
 0000:00000000       __guard_iat_table          0000000000000000     <absolute>
 0000:00000000       __hybrid_code_map_count    0000000000000000     <absolute>
 0000:00000000       ___safe_se_handler_count   0000000000000000     <absolute>
 0000:00000000       __enclave_config           0000000000000000     <absolute>
 0000:00000000       __AbsoluteZero             0000000000000000     <absolute>
 0000:00000000       ___safe_se_handler_table   0000000000000000     <absolute>
 0000:00000000       __guard_fids_table         0000000000000000     <absolute>
 0000:00000000       __hybrid_auxiliary_iat     0000000000000000     <absolute>
 0000:00000000       __dynamic_value_reloc_table 0000000000000000     <absolute>
 0000:00000100       __guard_flags              0000000000000100     <absolute>
 0000:00000000       __ImageBase                0000000180000000     <linker-defined>
 0001:00000000       ?what@exception@stdext@@UEBAPEBDXZ 0000000180001000 f i scrypt_common.obj
 0001:00000020       ?_Raise@exception@stdext@@QEBAXXZ 0000000180001020 f i scrypt_common.obj
 0001:00000060       ?_Doraise@exception@stdext@@MEBAXXZ 0000000180001060 f i scrypt_common.obj
 0001:00000060       _guard_check_icall_nop     0000000180001060 f i LIBCMT:guard_support.obj
 0001:00000070       ??_Eexception@stdext@@UEAAPEAXI@Z 0000000180001070 f i * CIL library *:* CIL module *
 0001:00000070       ??_Ebad_array_new_length@stdext@@UEAAPEAXI@Z 0000000180001070 f i * CIL library *:* CIL module *
 0001:00000070       ??_Gbad_array_new_length@stdext@@UEAAPEAXI@Z 0000000180001070 f i scrypt_common.obj
 0001:00000070       ??_Gexception@stdext@@UEAAPEAXI@Z 0000000180001070 f i scrypt_common.obj
 0001:000000a0       ?_Doraise@bad_alloc@stdext@@MEBAXXZ 00000001800010a0 f i scrypt_common.obj
 0001:000000c0       ??0bad_array_new_length@stdext@@QEAA@XZ 00000001800010c0 f i scrypt_common.obj
 0001:000000e0       ??1bad_array_new_length@stdext@@UEAA@XZ 00000001800010e0 f i scrypt_common.obj
 0001:000000f0       ?_Throw_bad_array_new_length@std@@YAXXZ 00000001800010f0 f i scrypt_common.obj
 0001:00000110       ??1HandleScope@Nan@@QEAA@XZ 0000000180001110 f i scrypt_params_async.obj
 0001:00000110       ??1EscapableHandleScope@Nan@@QEAA@XZ 0000000180001110 f i scrypt_common.obj
 0001:000004b0       ?ScryptError@NodeScrypt@@YA?AV?$Local@VValue@v8@@@v8@@I@Z 00000001800014b0 f   scrypt_common.obj
 0001:00000590       ??1?$basic_string@DU?$char_traits@D@std@@V?$allocator@D@2@@std@@QEAA@XZ 0000000180001590 f i scrypt_common.obj
 0001:000005f0       ?assign@?$basic_string@DU?$char_traits@D@std@@V?$allocator@D@2@@std@@QEAAAEAV12@QEBD@Z 00000001800015f0 f i scrypt_common.obj
 0001:00000760       ??$_Reallocate_grow_by@V<lambda_65e615be2a453ca0576c979606f46740>@@PEBD_K@?$basic_string@DU?$char_traits@D@std@@V?$allocator@D@2@@std@@AEAAAEAV01@_KV<lambda_65e615be2a453ca0576c979606f46740>@@PEBD_K@Z 0000000180001760 f i scrypt_common.obj
 0001:000008e0       ?_Xlen@?$basic_string@DU?$char_traits@D@std@@V?$allocator@D@2@@std@@CAXXZ 00000001800018e0 f i scrypt_common.obj
 0001:00000900       ??$_Reallocate_grow_by@V<lambda_f3a66ab6a0570788f31503db83886f49>@@_KPEBD_K@?$basic_string@DU?$char_traits@D@std@@V?$allocator@D@2@@std@@AEAAAEAV01@_KV<lambda_f3a66ab6a0570788f31503db83886f49>@@_KPEBD2@Z 0000000180001900 f i scrypt_common.obj
 0001:00000a60       ??0AsyncResource@Nan@@QEAA@PEBDV?$Local@VObject@v8@@@v8@@@Z 0000000180001a60 f i scrypt_params_async.obj
 0001:00000b20       ??1AsyncResource@Nan@@QEAA@XZ 0000000180001b20 f i scrypt_params_async.obj
 0001:00000b50       ?Call@Callback@Nan@@QEBA?AV?$Local@VValue@v8@@@v8@@HQEAV34@@Z 0000000180001b50 f i scrypt_params_async.obj
 0001:00000d50       ?Call_@Callback@Nan@@AEBA?AV?$MaybeLocal@VValue@v8@@@v8@@PEAVIsolate@4@V?$Local@VObject@v8@@@4@HQEAV?$Local@VValue@v8@@@4@PEAVAsyncResource@2@@Z 0000000180001d50 f i scrypt_params_async.obj
 0001:00000e40       ??1AsyncWorker@Nan@@UEAA@XZ 0000000180001e40 f i scrypt_params_async.obj
 0001:00000f20       ?WorkComplete@AsyncWorker@Nan@@UEAAXXZ 0000000180001f20 f i scrypt_params_async.obj
 0001:00000fb0       ?Destroy@AsyncWorker@Nan@@UEAAXXZ 0000000180001fb0 f i scrypt_params_async.obj
 0001:00000fd0       ?HandleOKCallback@AsyncWorker@Nan@@MEAAXXZ 0000000180001fd0 f i scrypt_params_async.obj
 0001:00001070       ?HandleErrorCallback@AsyncWorker@Nan@@MEAAXXZ 0000000180002070 f i scrypt_params_async.obj
 0001:00001170       ??_EAsyncWorker@Nan@@UEAAPEAXI@Z 0000000180002170 f i * CIL library *:* CIL module *
 0001:00001170       ??_GAsyncWorker@Nan@@UEAAPEAXI@Z 0000000180002170 f i scrypt_params_async.obj
 0001:000011b0       ?AsyncExecute@Nan@@YAXPEAUuv_work_s@@@Z 00000001800021b0 f i scrypt_params_async.obj
 0001:000011c0       ?AsyncExecuteComplete@Nan@@YAXPEAUuv_work_s@@@Z 00000001800021c0 f i scrypt_params_async.obj
 0001:000011f0       ??0ScryptAsyncWorker@@QEAA@PEAVCallback@Nan@@@Z 00000001800021f0 f i scrypt_params_async.obj
 0001:00001300       ?HandleErrorCallback@ScryptAsyncWorker@@UEAAXXZ 0000000180002300 f i scrypt_params_async.obj
 0001:00001360       ?WorkComplete@ScryptAsyncWorker@@UEAAXXZ 0000000180002360 f i scrypt_params_async.obj
 0001:000013f0       ??_GScryptAsyncWorker@@UEAAPEAXI@Z 00000001800023f0 f i scrypt_params_async.obj
 0001:000013f0       ??_EScryptAsyncWorker@@UEAAPEAXI@Z 00000001800023f0 f i * CIL library *:* CIL module *
 0001:00001430       ??1ScryptAsyncWorker@@UEAA@XZ 0000000180002430 f i scrypt_params_async.obj
 0001:00001440       ??_EScryptKDFAsyncWorker@@UEAAPEAXI@Z 0000000180002440 f i * CIL library *:* CIL module *
 0001:00001440       ??_EScryptParamsAsyncWorker@@UEAAPEAXI@Z 0000000180002440 f i * CIL library *:* CIL module *
 0001:00001440       ??_GScryptKDFAsyncWorker@@UEAAPEAXI@Z 0000000180002440 f i scrypt_kdf_async.obj
 0001:00001440       ??_GScryptParamsAsyncWorker@@UEAAPEAXI@Z 0000000180002440 f i scrypt_params_async.obj
 0001:00001480       ?Execute@ScryptParamsAsyncWorker@@UEAAXXZ 0000000180002480 f   scrypt_params_async.obj
 0001:000014e0       ?HandleOKCallback@ScryptParamsAsyncWorker@@UEAAXXZ 00000001800024e0 f   scrypt_params_async.obj
 0001:000017a0       ?params@@YAXAEBV?$FunctionCallbackInfo@VValue@v8@@@Nan@@@Z 00000001800027a0 f   scrypt_params_async.obj
 0001:00001920       ?paramsSync@@YAXAEBV?$FunctionCallbackInfo@VValue@v8@@@Nan@@@Z 0000000180002920 f   scrypt_params_sync.obj
 0001:00001ca0       ?SaveToPersistent@AsyncWorker@Nan@@QEAAXPEBDAEBV?$Local@VValue@v8@@@v8@@@Z 0000000180002ca0 f i scrypt_kdf_async.obj
 0001:00001db0       ?GetFromPersistent@AsyncWorker@Nan@@QEBA?AV?$Local@VValue@v8@@@v8@@PEBD@Z 0000000180002db0 f i scrypt_kdf_async.obj
 0001:00001ee0       ??0Params@NodeScrypt@@QEAA@AEBV?$Local@VObject@v8@@@v8@@@Z 0000000180002ee0 f i scrypt_kdf_async.obj
 0001:00002000       ??0ScryptKDFAsyncWorker@@QEAA@AEBV?$FunctionCallbackInfo@VValue@v8@@@Nan@@@Z 0000000180003000 f i scrypt_kdf_async.obj
 0001:00002320       ?Execute@ScryptKDFAsyncWorker@@UEAAXXZ 0000000180003320 f   scrypt_kdf_async.obj
 0001:00002380       ?HandleOKCallback@ScryptKDFAsyncWorker@@UEAAXXZ 0000000180003380 f   scrypt_kdf_async.obj
 0001:00002460       ?kdf@@YAXAEBV?$FunctionCallbackInfo@VValue@v8@@@Nan@@@Z 0000000180003460 f   scrypt_kdf_async.obj
 0001:000024c0       ?kdfSync@@YAXAEBV?$FunctionCallbackInfo@VValue@v8@@@Nan@@@Z 00000001800034c0 f   scrypt_kdf_sync.obj
 0001:00002640       ?kdfVerifySync@@YAXAEBV?$FunctionCallbackInfo@VValue@v8@@@Nan@@@Z 0000000180003640 f   scrypt_kdf-verify_sync.obj
 0001:00002750       ??0ScryptKDFVerifyAsyncWorker@@QEAA@AEBV?$FunctionCallbackInfo@VValue@v8@@@Nan@@@Z 0000000180003750 f i scrypt_kdf-verify_async.obj
 0001:00002970       ??_EScryptKDFVerifyAsyncWorker@@UEAAPEAXI@Z 0000000180003970 f i * CIL library *:* CIL module *
 0001:00002970       ??_GScryptKDFVerifyAsyncWorker@@UEAAPEAXI@Z 0000000180003970 f i scrypt_kdf-verify_async.obj
 0001:000029b0       ?Execute@ScryptKDFVerifyAsyncWorker@@UEAAXXZ 00000001800039b0 f   scrypt_kdf-verify_async.obj
 0001:00002a00       ?HandleOKCallback@ScryptKDFVerifyAsyncWorker@@UEAAXXZ 0000000180003a00 f   scrypt_kdf-verify_async.obj
 0001:00002a90       ?kdfVerify@@YAXAEBV?$FunctionCallbackInfo@VValue@v8@@@Nan@@@Z 0000000180003a90 f   scrypt_kdf-verify_async.obj
 0001:00002af0       ?hashSync@@YAXAEBV?$FunctionCallbackInfo@VValue@v8@@@Nan@@@Z 0000000180003af0 f   scrypt_hash_sync.obj
 0001:00002d20       ??0ScryptHashAsyncWorker@@QEAA@AEBV?$FunctionCallbackInfo@VValue@v8@@@Nan@@@Z 0000000180003d20 f i scrypt_hash_async.obj
 0001:000030c0       ??_EScryptHashAsyncWorker@@UEAAPEAXI@Z 00000001800040c0 f i * CIL library *:* CIL module *
 0001:000030c0       ??_GScryptHashAsyncWorker@@UEAAPEAXI@Z 00000001800040c0 f i scrypt_hash_async.obj
 0001:00003100       ?Execute@ScryptHashAsyncWorker@@UEAAXXZ 0000000180004100 f   scrypt_hash_async.obj
 0001:000031a0       ?HandleOKCallback@ScryptHashAsyncWorker@@UEAAXXZ 00000001800041a0 f   scrypt_hash_async.obj
 0001:00003280       ?hash@@YAXAEBV?$FunctionCallbackInfo@VValue@v8@@@Nan@@@Z 0000000180004280 f   scrypt_hash_async.obj
 0001:000033c0       ?InitAll@@YAXV?$Local@VObject@v8@@@v8@@@Z 00000001800043c0 f   scrypt_node.obj
 0001:00003b70       ??$New@VFunctionTemplate@v8@@@Nan@@YA?AV?$Local@VFunctionTemplate@v8@@@v8@@P6AXAEBV?$FunctionCallbackInfo@VValue@v8@@@0@@ZV?$Local@VValue@v8@@@2@@Z 0000000180004b70 f i scrypt_node.obj
 0001:00003d50       pickparams                 0000000180004d50 f   scrypt_wrapper:pickparams.obj
 0001:00003fd0       KDF                        0000000180004fd0 f   scrypt_wrapper:keyderivation.obj
 0001:000041d0       Verify                     00000001800051d0 f   scrypt_wrapper:keyderivation.obj
 0001:000043e0       scryptenc_cpuperf          00000001800053e0 f   scrypt_lib:scryptenc_cpuperf.obj
 0001:00006400       libcperciva_SHA256_Update  0000000180007400 f   scrypt_lib:sha256.obj
 0001:000064d0       libcperciva_SHA256_Final   00000001800074d0 f   scrypt_lib:sha256.obj
 0001:00006760       libcperciva_HMAC_SHA256_Init 0000000180007760 f   scrypt_lib:sha256.obj
 0001:00006b40       libcperciva_HMAC_SHA256_Final 0000000180007b40 f   scrypt_lib:sha256.obj
 0001:00006c70       PBKDF2_SHA256              0000000180007c70 f   scrypt_lib:sha256.obj
 0001:000070b0       crypto_scrypt              00000001800080b0 f   scrypt_lib:crypto_scrypt.obj
 0001:00007240       __local_stdio_printf_options 0000000180008240 f i scrypt_lib:warnp.obj
 0001:00007250       fprintf                    0000000180008250 f i scrypt_lib:warnp.obj
 0001:000072a0       libcperciva_warnx          00000001800082a0 f   scrypt_lib:warnp.obj
 0001:00007910       crypto_scrypt_smix         0000000180008910 f   scrypt_lib:crypto_scrypt_smix.obj
 0001:00007d2e       __imp_load_?GetCurrent@Isolate@v8@@SAPEAV12@XZ 0000000180008d2e f   node:node.exe
 0001:00007d3a       __tailMerge_node_exe       0000000180008d3a     node:node.exe
 0001:00007db3       __imp_load_??1HandleScope@v8@@QEAA@XZ 0000000180008db3 f   node:node.exe
 0001:00007dbf       ??1HandleScope@v8@@QEAA@XZ 0000000180008dbf f   node:node.exe
 0001:00007dc5       __imp_load_?Error@Exception@v8@@SA?AV?$Local@VValue@v8@@@2@V?$Local@VString@v8@@@2@@Z 0000000180008dc5 f   node:node.exe
 0001:00007dd1       __imp_load_?ToLocalEmpty@V8@v8@@CAXXZ 0000000180008dd1 f   node:node.exe
 0001:00007ddd       __imp_load_?Escape@EscapableHandleScope@v8@@AEAAPEAPEAVObject@internal@2@PEAPEAV342@@Z 0000000180008ddd f   node:node.exe
 0001:00007de9       __imp_load_??0EscapableHandleScope@v8@@QEAA@PEAVIsolate@1@@Z 0000000180008de9 f   node:node.exe
 0001:00007df5       __imp_load_?NewFromUtf8@String@v8@@SA?AV?$MaybeLocal@VString@v8@@@2@PEAVIsolate@2@PEBDW4NewStringType@2@H@Z 0000000180008df5 f   node:node.exe
 0001:00007e01       __imp_load_??1EscapableHandleScope@v8@@QEAA@XZ 0000000180008e01 f   node:node.exe
 0001:00007e0d       ??1EscapableHandleScope@v8@@QEAA@XZ 0000000180008e0d f   node:node.exe
 0001:00007e13       __imp_load_uv_queue_work   0000000180008e13 f   node:node.exe
 0001:00007e1f       __imp_load_?Global@Context@v8@@QEAA?AV?$Local@VObject@v8@@@2@XZ 0000000180008e1f f   node:node.exe
 0001:00007e2b       __imp_load_?NewFromUnsigned@Integer@v8@@SA?AV?$Local@VInteger@v8@@@2@PEAVIsolate@2@I@Z 0000000180008e2b f   node:node.exe
 0001:00007e37       __imp_load_?New@Integer@v8@@SA?AV?$Local@VInteger@v8@@@2@PEAVIsolate@2@H@Z 0000000180008e37 f   node:node.exe
 0001:00007e43       __imp_load_?GetCurrentContext@Isolate@v8@@QEAA?AV?$Local@VContext@v8@@@2@XZ 0000000180008e43 f   node:node.exe
 0001:00007e4f       __imp_load_?CreateHandle@HandleScope@v8@@KAPEAPEAVObject@internal@2@PEAVIsolate@42@PEAV342@@Z 0000000180008e4f f   node:node.exe
 0001:00007e5b       __imp_load_??0HandleScope@v8@@QEAA@PEAVIsolate@1@@Z 0000000180008e5b f   node:node.exe
 0001:00007e67       __imp_load_?DisposeGlobal@V8@v8@@CAXPEAPEAVObject@internal@2@@Z 0000000180008e67 f   node:node.exe
 0001:00007e73       __imp_load_?GlobalizeReference@V8@v8@@CAPEAPEAVObject@internal@2@PEAVIsolate@42@PEAPEAV342@@Z 0000000180008e73 f   node:node.exe
 0001:00007e7f       __imp_load_?IntegerValue@Value@v8@@QEBA_JXZ 0000000180008e7f f   node:node.exe
 0001:00007e8b       __imp_load_?NumberValue@Value@v8@@QEBANXZ 0000000180008e8b f   node:node.exe
 0001:00007e97       __imp_load_?ToInteger@Value@v8@@QEBA?AV?$MaybeLocal@VInteger@v8@@@2@V?$Local@VContext@v8@@@2@@Z 0000000180008e97 f   node:node.exe
 0001:00007ea3       __imp_load_?New@Object@v8@@SA?AV?$Local@VObject@v8@@@2@PEAVIsolate@2@@Z 0000000180008ea3 f   node:node.exe
 0001:00007eaf       __imp_load_?Set@Object@v8@@QEAA_NV?$Local@VValue@v8@@@2@0@Z 0000000180008eaf f   node:node.exe
 0001:00007ebb       __imp_load_?EmitAsyncDestroy@node@@YAXPEAVIsolate@v8@@Uasync_context@1@@Z 0000000180008ebb f   node:node.exe
 0001:00007ec7       __imp_load_?MakeCallback@node@@YA?AV?$MaybeLocal@VValue@v8@@@v8@@PEAVIsolate@3@V?$Local@VObject@v8@@@3@V?$Local@VFunction@v8@@@3@HPEAV?$Local@VValue@v8@@@3@Uasync_context@1@@Z 0000000180008ec7 f   node:node.exe
 0001:00007ed3       __imp_load_?EmitAsyncInit@node@@YA?AUasync_context@1@PEAVIsolate@v8@@V?$Local@VObject@v8@@@4@V?$Local@VString@v8@@@4@N@Z 0000000180008ed3 f   node:node.exe
 0001:00007edf       __imp_load_?GetCurrentEventLoop@node@@YAPEAUuv_loop_s@@PEAVIsolate@v8@@@Z 0000000180008edf f   node:node.exe
 0001:00007eeb       __imp_load_?ThrowException@Isolate@v8@@QEAA?AV?$Local@VValue@v8@@@2@V32@@Z 0000000180008eeb f   node:node.exe
 0001:00007ef7       __imp_load_?FromJustIsNothing@V8@v8@@CAXXZ 0000000180008ef7 f   node:node.exe
 0001:00007f03       __imp_load_?Uint32Value@Value@v8@@QEBAIXZ 0000000180008f03 f   node:node.exe
 0001:00007f0f       __imp_load_?Get@Object@v8@@QEAA?AV?$Local@VValue@v8@@@2@V32@@Z 0000000180008f0f f   node:node.exe
 0001:00007f1b       __imp_load_?Get@Object@v8@@QEAA?AV?$MaybeLocal@VValue@v8@@@2@V?$Local@VContext@v8@@@2@V?$Local@VValue@v8@@@2@@Z 0000000180008f1b f   node:node.exe
 0001:00007f27       __imp_load_?Set@Object@v8@@QEAA?AV?$Maybe@_N@2@V?$Local@VContext@v8@@@2@V?$Local@VValue@v8@@@2@1@Z 0000000180008f27 f   node:node.exe
 0001:00007f33       __imp_load_?New@Buffer@node@@YA?AV?$MaybeLocal@VObject@v8@@@v8@@PEAVIsolate@4@_K@Z 0000000180008f33 f   node:node.exe
 0001:00007f3f       __imp_load_?Data@Buffer@node@@YAPEADV?$Local@VValue@v8@@@v8@@@Z 0000000180008f3f f   node:node.exe
 0001:00007f4b       __imp_load_?Length@Buffer@node@@YA_KV?$Local@VValue@v8@@@v8@@@Z 0000000180008f4b f   node:node.exe
 0001:00007f57       __imp_load_?ToObject@Value@v8@@QEBA?AV?$Local@VObject@v8@@@2@XZ 0000000180008f57 f   node:node.exe
 0001:00007f63       __imp_load_?Value@External@v8@@QEBAPEAXXZ 0000000180008f63 f   node:node.exe
 0001:00007f6f       __imp_load_?New@External@v8@@SA?AV?$Local@VExternal@v8@@@2@PEAVIsolate@2@PEAX@Z 0000000180008f6f f   node:node.exe
 0001:00007f7b       __imp_load_?CreateHandle@HandleScope@v8@@CAPEAPEAVObject@internal@2@PEAVHeapObject@42@PEAV342@@Z 0000000180008f7b f   node:node.exe
 0001:00007f87       __imp_load_?GetFunction@FunctionTemplate@v8@@QEAA?AV?$MaybeLocal@VFunction@v8@@@2@V?$Local@VContext@v8@@@2@@Z 0000000180008f87 f   node:node.exe
 0001:00007f93       __imp_load_?New@FunctionTemplate@v8@@SA?AV?$Local@VFunctionTemplate@v8@@@2@PEAVIsolate@2@P6AXAEBV?$FunctionCallbackInfo@VValue@v8@@@2@@ZV?$Local@VValue@v8@@@2@V?$Local@VSignature@v8@@@2@HW4ConstructorBehavior@2@W4SideEffectType@2@@Z 0000000180008f93 f   node:node.exe
 0001:00007f9f       __imp_load_?SlowGetInternalField@Object@v8@@AEAA?AV?$Local@VValue@v8@@@2@H@Z 0000000180008f9f f   node:node.exe
 0001:00007fab       __imp_load_?SetInternalField@Object@v8@@QEAAXHV?$Local@VValue@v8@@@2@@Z 0000000180008fab f   node:node.exe
 0001:00007fb7       __imp_load_?SetInternalFieldCount@ObjectTemplate@v8@@QEAAXH@Z 0000000180008fb7 f   node:node.exe
 0001:00007fc3       __imp_load_?NewInstance@ObjectTemplate@v8@@QEAA?AV?$MaybeLocal@VObject@v8@@@2@V?$Local@VContext@v8@@@2@@Z 0000000180008fc3 f   node:node.exe
 0001:00007fcf       __imp_load_?New@ObjectTemplate@v8@@SA?AV?$Local@VObjectTemplate@v8@@@2@PEAVIsolate@2@V?$Local@VFunctionTemplate@v8@@@2@@Z 0000000180008fcf f   node:node.exe
 0001:00007fdb       __imp_load_node_module_register 0000000180008fdb f   node:node.exe
 0001:00007fe8       ??0bad_alloc@std@@QEAA@AEBV01@@Z 0000000180008fe8 f i libcpmt:xthrow.obj
 0001:00008024       ??0bad_alloc@std@@QEAA@XZ  0000000180009024 f i libcpmt:xthrow.obj
 0001:00008044       ??0exception@std@@QEAA@AEBV01@@Z 0000000180009044 f i libcpmt:xthrow.obj
 0001:00008078       ??0length_error@std@@QEAA@AEBV01@@Z 0000000180009078 f i libcpmt:xthrow.obj
 0001:000080b4       ??0length_error@std@@QEAA@PEBD@Z 00000001800090b4 f i libcpmt:xthrow.obj
 0001:000080fc       ??0logic_error@std@@QEAA@AEBV01@@Z 00000001800090fc f i libcpmt:xthrow.obj
 0001:00008138       ??1length_error@std@@UEAA@XZ 0000000180009138 f i libcpmt:xthrow.obj
 0001:00008138       ??1bad_alloc@std@@UEAA@XZ  0000000180009138 f i libcpmt:xthrow.obj
 0001:00008138       ??1bad_exception@std@@UEAA@XZ 0000000180009138 f i libvcruntime:frame.obj
 0001:00008138       ??1bad_array_new_length@std@@UEAA@XZ 0000000180009138 f i LIBCMT:throw_bad_alloc.obj
 0001:0000814c       ??_Gexception@std@@UEAAPEAXI@Z 000000018000914c f i libcpmt:xthrow.obj
 0001:0000814c       ??_Gbad_alloc@std@@UEAAPEAXI@Z 000000018000914c f i libcpmt:xthrow.obj
 0001:0000814c       ??_Ebad_alloc@std@@UEAAPEAXI@Z 000000018000914c f i libcpmt:xthrow.obj
 0001:0000814c       ??_Elength_error@std@@UEAAPEAXI@Z 000000018000914c f i libcpmt:xthrow.obj
 0001:0000814c       ??_Ebad_array_new_length@std@@UEAAPEAXI@Z 000000018000914c f i LIBCMT:throw_bad_alloc.obj
 0001:0000814c       ??_Gbad_exception@std@@UEAAPEAXI@Z 000000018000914c f i libvcruntime:frame.obj
 0001:0000814c       ??_Glength_error@std@@UEAAPEAXI@Z 000000018000914c f i libcpmt:xthrow.obj
 0001:0000814c       ??_Elogic_error@std@@UEAAPEAXI@Z 000000018000914c f i libcpmt:xthrow.obj
 0001:0000814c       ??_Gbad_array_new_length@std@@UEAAPEAXI@Z 000000018000914c f i LIBCMT:throw_bad_alloc.obj
 0001:0000814c       ??_Ebad_exception@std@@UEAAPEAXI@Z 000000018000914c f i libvcruntime:frame.obj
 0001:0000814c       ??_Eexception@std@@UEAAPEAXI@Z 000000018000914c f i libcpmt:xthrow.obj
 0001:0000814c       ??_Glogic_error@std@@UEAAPEAXI@Z 000000018000914c f i libcpmt:xthrow.obj
 0001:00008190       ?_Xlength_error@std@@YAXPEBD@Z 0000000180009190 f   libcpmt:xthrow.obj
 0001:000081b4       ?what@exception@std@@UEBAPEBDXZ 00000001800091b4 f i libcpmt:xthrow.obj
 0001:000081e0       __security_check_cookie    00000001800091e0 f   LIBCMT:amdsecgs.obj
 0001:00008204       ??2@YAPEAX_K@Z             0000000180009204 f   LIBCMT:new_scalar.obj
 0001:00008240       ??_V@YAXPEAX@Z             0000000180009240 f   LIBCMT:delete_array.obj
 0001:00008240       ??3@YAXPEAX_K@Z            0000000180009240 f   LIBCMT:delete_scalar_size.obj
 0001:00008568       _DllMainCRTStartup         0000000180009568 f   LIBCMT:dll_dllmain.obj
 0001:000085a8       __scrt_acquire_startup_lock 00000001800095a8 f   LIBCMT:utility.obj
 0001:000085e4       __scrt_dllmain_after_initialize_c 00000001800095e4 f   LIBCMT:utility.obj
 0001:00008618       __scrt_dllmain_before_initialize_c 0000000180009618 f   LIBCMT:utility.obj
 0001:00008630       __scrt_dllmain_crt_thread_attach 0000000180009630 f   LIBCMT:utility.obj
 0001:00008658       __scrt_dllmain_crt_thread_detach 0000000180009658 f   LIBCMT:utility.obj
 0001:00008670       __scrt_dllmain_exception_filter 0000000180009670 f   LIBCMT:utility.obj
 0001:000086d0       __scrt_dllmain_uninitialize_c 00000001800096d0 f   LIBCMT:utility.obj
 0001:00008700       __scrt_dllmain_uninitialize_critical 0000000180009700 f   LIBCMT:utility.obj
 0001:00008714       __scrt_initialize_crt      0000000180009714 f   LIBCMT:utility.obj
 0001:00008760       __scrt_initialize_onexit_tables 0000000180009760 f   LIBCMT:utility.obj
 0001:000087ec       __scrt_is_nonwritable_in_current_image 00000001800097ec f   LIBCMT:utility.obj
 0001:00008884       __scrt_release_startup_lock 0000000180009884 f   LIBCMT:utility.obj
 0001:000088a8       __scrt_uninitialize_crt    00000001800098a8 f   LIBCMT:utility.obj
 0001:000088d4       ??_Gtype_info@@UEAAPEAXI@Z 00000001800098d4 f i LIBCMT:std_type_info_static.obj
 0001:000088d4       ??_Etype_info@@UEAAPEAXI@Z 00000001800098d4 f i LIBCMT:std_type_info_static.obj
 0001:00008900       __raise_securityfailure    0000000180009900 f   LIBCMT:gs_report.obj
 0001:00008934       __report_gsfailure         0000000180009934 f   LIBCMT:gs_report.obj
 0001:00008a08       __report_rangecheckfailure 0000000180009a08 f   LIBCMT:gs_report.obj
 0001:00008a1c       __report_securityfailure   0000000180009a1c f   LIBCMT:gs_report.obj
 0001:00008b9c       ??0bad_array_new_length@std@@QEAA@AEBV01@@Z 0000000180009b9c f i LIBCMT:throw_bad_alloc.obj
 0001:00008bd8       ??0bad_array_new_length@std@@QEAA@XZ 0000000180009bd8 f i LIBCMT:throw_bad_alloc.obj
 0001:00008bf8       ?__scrt_throw_std_bad_alloc@@YAXXZ 0000000180009bf8 f   LIBCMT:throw_bad_alloc.obj
 0001:00008c18       ?__scrt_throw_std_bad_array_new_length@@YAXXZ 0000000180009c18 f   LIBCMT:throw_bad_alloc.obj
 0001:00008c38       ??3@YAXPEAX@Z              0000000180009c38 f   LIBCMT:delete_scalar.obj
 0001:00008c40       __security_init_cookie     0000000180009c40 f   LIBCMT:gs_support.obj
 0001:00008cec       DllMain                    0000000180009cec f   LIBCMT:dll_dllmain_stub.obj
 0001:00008cec       _get_startup_argv_mode     0000000180009cec f   LIBCMT:argv_mode.obj
 0001:00008cf4       ?__scrt_initialize_type_info@@YAXXZ 0000000180009cf4 f   LIBCMT:tncleanup.obj
 0001:00008d04       ?__scrt_uninitialize_type_info@@YAXXZ 0000000180009d04 f   LIBCMT:tncleanup.obj
 0001:00008d10       __local_stdio_scanf_options 0000000180009d10 f i LIBCMT:default_local_stdio_options.obj
 0001:00008d18       __scrt_initialize_default_local_stdio_options 0000000180009d18 f   LIBCMT:default_local_stdio_options.obj
 0001:00008d34       __scrt_get_dyn_tls_init_callback 0000000180009d34 f   LIBCMT:dyn_tls_init.obj
 0001:00008d3c       __crt_debugger_hook        0000000180009d3c f   LIBCMT:utility_desktop.obj
 0001:00008d44       __scrt_fastfail            0000000180009d44 f   LIBCMT:utility_desktop.obj
 0001:00008e90       _RTC_Initialize            0000000180009e90 f   LIBCMT:initsect.obj
 0001:00008ecc       _RTC_Terminate             0000000180009ecc f   LIBCMT:initsect.obj
 0001:00008f08       __isa_available_init       0000000180009f08 f   LIBCMT:cpu_disp.obj
 0001:000090a0       __scrt_is_ucrt_dll_in_use  000000018000a0a0 f   LIBCMT:ucrt_detection.obj
 0001:000090b0       ??$_CallSETranslator@V__FrameHandler4@@@@YAHPEAUEHExceptionRecord@@PEA_KPEAU_CONTEXT@@PEAU_xDISPATCHER_CONTEXT@@PEAUFuncInfo4@FH4@@K1@Z 000000018000a0b0 f i libvcruntime:risctrnsctrl.obj
 0001:00009104       ?DecompFuncInfo@FH4@@YA_JPEAEAEAUFuncInfo4@1@_KH_N@Z 000000018000a104 f i libvcruntime:risctrnsctrl.obj
 0001:00009228       ?ExecutionInCatch@__FrameHandler4@@SA_NPEAU_xDISPATCHER_CONTEXT@@PEAUFuncInfo4@FH4@@@Z 000000018000a228 f   libvcruntime:risctrnsctrl.obj
 0001:00009230       ?FrameUnwindToEmptyState@__FrameHandler4@@SAXPEA_KPEAU_xDISPATCHER_CONTEXT@@PEAUFuncInfo4@FH4@@@Z 000000018000a230 f   libvcruntime:risctrnsctrl.obj
 0001:00009264       ?GetEstablisherFrame@__FrameHandler4@@SAPEA_KPEA_KPEAU_xDISPATCHER_CONTEXT@@PEAUFuncInfo4@FH4@@0@Z 000000018000a264 f   libvcruntime:risctrnsctrl.obj
 0001:00009288       ?GetRangeOfTrysToCheck@__FrameHandler4@@SA?AU?$pair@Viterator@TryBlockMap4@FH4@@V123@@std@@AEAVTryBlockMap4@FH4@@HPEAU_xDISPATCHER_CONTEXT@@PEAUFuncInfo4@5@H@Z 000000018000a288 f   libvcruntime:risctrnsctrl.obj
 0001:000093e0       ?UnwindNestedFrames@__FrameHandler4@@SAXPEA_KPEAUEHExceptionRecord@@PEAU_CONTEXT@@0PEAXPEAUFuncInfo4@FH4@@HHPEAUHandlerType4@5@PEAU_xDISPATCHER_CONTEXT@@E@Z 000000018000a3e0 f   libvcruntime:risctrnsctrl.obj
 0001:00009520       ?setBuffer@TryBlockMap4@FH4@@QEAAXViterator@12@@Z 000000018000a520 f i libvcruntime:risctrnsctrl.obj
 0001:000096ec       _CreateFrameInfo           000000018000a6ec f   libvcruntime:risctrnsctrl.obj
 0001:00009728       _FindAndUnlinkFrame        000000018000a728 f   libvcruntime:risctrnsctrl.obj
 0001:0000977c       _GetImageBase              000000018000a77c f   libvcruntime:risctrnsctrl.obj
 0001:00009790       _GetThrowImageBase         000000018000a790 f   libvcruntime:risctrnsctrl.obj
 0001:000097a4       _SetImageBase              000000018000a7a4 f   libvcruntime:risctrnsctrl.obj
 0001:000097bc       _SetThrowImageBase         000000018000a7bc f   libvcruntime:risctrnsctrl.obj
 0001:000097d4       __CxxFrameHandler4         000000018000a7d4 f   libvcruntime:risctrnsctrl.obj
 0001:00009894       __DestructExceptionObject  000000018000a894 f   libvcruntime:ehhelpers.obj
 0001:00009904       ?_CallMemberFunction0@@YAXQEAX0@Z 000000018000a904 f i libvcruntime:ehhelpers.obj
 0001:00009908       _IsExceptionObjectToBeDestroyed 000000018000a908 f   libvcruntime:ehhelpers.obj
 0001:00009938       __AdjustPointer            000000018000a938 f   libvcruntime:ehhelpers.obj
 0001:0000995c       __FrameUnwindFilter        000000018000a95c f   libvcruntime:ehhelpers.obj
 0001:000099c4       __std_terminate            000000018000a9c4 f   libvcruntime:ehhelpers.obj
 0001:000099d0       _purecall                  000000018000a9d0 f   libvcruntime:purevirt.obj
 0001:000099ec       __std_exception_copy       000000018000a9ec f   libvcruntime:std_exception.obj
 0001:00009a7c       __std_exception_destroy    000000018000aa7c f   libvcruntime:std_exception.obj
 0001:00009aa4       _CxxThrowException         000000018000aaa4 f   libvcruntime:throw.obj
 0001:00009b44       __C_specific_handler       000000018000ab44 f   libvcruntime:riscchandler.obj
 0001:00009d50       __vcrt_initialize          000000018000ad50 f   libvcruntime:initialization.obj
 0001:00009d78       __vcrt_thread_attach       000000018000ad78 f   libvcruntime:initialization.obj
 0001:00009d8c       __vcrt_thread_detach       000000018000ad8c f   libvcruntime:initialization.obj
 0001:00009da0       __vcrt_uninitialize        000000018000ada0 f   libvcruntime:initialization.obj
 0001:00009dbc       __vcrt_uninitialize_critical 000000018000adbc f   libvcruntime:initialization.obj
 0001:00009dcc       __std_type_info_compare    000000018000adcc f   libvcruntime:std_type_info.obj
 0001:00009df4       __std_type_info_destroy_list 000000018000adf4 f   libvcruntime:std_type_info.obj
 0001:00009e30       memset_repmovs             000000018000ae30 f   libvcruntime:memset.obj
 0001:00009e50       memset                     000000018000ae50 f   libvcruntime:memset.obj
 0001:00009fe0       __vcrt_freefls             000000018000afe0 f   libvcruntime:per_thread_data.obj
 0001:0000a000       __vcrt_freeptd             000000018000b000 f   libvcruntime:per_thread_data.obj
 0001:0000a050       __vcrt_getptd              000000018000b050 f   libvcruntime:per_thread_data.obj
 0001:0000a06c       __vcrt_getptd_noexit       000000018000b06c f   libvcruntime:per_thread_data.obj
 0001:0000a12c       __vcrt_initialize_ptd      000000018000b12c f   libvcruntime:per_thread_data.obj
 0001:0000a174       __vcrt_uninitialize_ptd    000000018000b174 f   libvcruntime:per_thread_data.obj
 0001:0000a198       ?StateFromControlPc@__FrameHandler4@@SAHPEAUFuncInfo4@FH4@@PEAU_xDISPATCHER_CONTEXT@@@Z 000000018000b198 f   libvcruntime:ehstate.obj
 0001:0000a1a0       ?StateFromIp@__FrameHandler4@@SAHPEAUFuncInfo4@FH4@@PEAU_xDISPATCHER_CONTEXT@@_K@Z 000000018000b1a0 f   libvcruntime:ehstate.obj
 0001:0000ae2c       ??$TypeMatchHelper@V__FrameHandler3@@@@YAHPEBU_s_HandlerType@@PEBU_s_CatchableType@@PEBU_s_ThrowInfo@@@Z 000000018000be2c f i libvcruntime:frame.obj
 0001:0000af70       ??$TypeMatchHelper@V__FrameHandler4@@@@YAHPEAUHandlerType4@FH4@@PEBU_s_CatchableType@@PEBU_s_ThrowInfo@@@Z 000000018000bf70 f i libvcruntime:frame.obj
 0001:0000b0b8       ??$__InternalCxxFrameHandler@V__FrameHandler4@@@@YA?AW4_EXCEPTION_DISPOSITION@@PEAUEHExceptionRecord@@PEA_KPEAU_CONTEXT@@PEAU_xDISPATCHER_CONTEXT@@PEAUFuncInfo4@FH4@@H1E@Z 000000018000c0b8 f i libvcruntime:frame.obj
 0001:0000b358       ??0HandlerMap4@FH4@@QEAA@PEBUTryBlockMapEntry4@1@_KH@Z 000000018000c358 f i libvcruntime:frame.obj
 0001:0000b3d4       ??0TryBlockMap4@FH4@@QEAA@PEBUFuncInfo4@1@_K@Z 000000018000c3d4 f i libvcruntime:frame.obj
 0001:0000b4ac       ??0bad_exception@std@@QEAA@AEBV01@@Z 000000018000c4ac f i libvcruntime:frame.obj
 0001:0000b4e8       ??0bad_exception@std@@QEAA@XZ 000000018000c4e8 f i libvcruntime:frame.obj
 0001:0000b508       ?CxxCallCatchBlock@__FrameHandler4@@SAPEAXPEAU_EXCEPTION_RECORD@@@Z 000000018000c508 f   libvcruntime:frame.obj
 0001:0000b758       ?DecompHandler@HandlerMap4@FH4@@AEAAXXZ 000000018000c758 f i libvcruntime:frame.obj
 0001:0000b9a0       ?FrameUnwindToState@__FrameHandler4@@SAXPEA_KPEAU_xDISPATCHER_CONTEXT@@PEAUFuncInfo4@FH4@@H@Z 000000018000c9a0 f   libvcruntime:frame.obj
 0001:0000bdec       ?ReadEntry@UWMap4@FH4@@AEAAXPEAPEAE@Z 000000018000cdec f i libvcruntime:frame.obj
 0001:0000be8c       ?_CallMemberFunction1@@YAXQEAX00@Z 000000018000ce8c f i libvcruntime:frame.obj
 0001:0000be98       ?_CallMemberFunction2@@YAXQEAX00H@Z 000000018000ce98 f i libvcruntime:frame.obj
 0001:0000bea8       ?getStartStop@UWMap4@FH4@@QEAAXHHAEAViterator@12@0@Z 000000018000cea8 f i libvcruntime:frame.obj
 0001:0000bf78       ?getStateFromIterators@UWMap4@FH4@@SAHAEBViterator@12@H0H0@Z 000000018000cf78 f i libvcruntime:frame.obj
 0001:0000c050       _NLG_Notify                000000018000d050 f   libvcruntime:notify.obj
 0001:0000c070       __NLG_Dispatch2            000000018000d070 f   libvcruntime:notify.obj
 0001:0000c080       __NLG_Return2              000000018000d080 f   libvcruntime:notify.obj
 0001:0000c084       __except_validate_context_record 000000018000d084 f   libvcruntime:jbcxrval.obj
 0001:0000c0bc       __vcrt_initialize_locks    000000018000d0bc f   libvcruntime:locks.obj
 0001:0000c0f0       __vcrt_uninitialize_locks  000000018000d0f0 f   libvcruntime:locks.obj
 0001:0000c284       __vcrt_FlsAlloc            000000018000d284 f   libvcruntime:winapi_downlevel.obj
 0001:0000c2cc       __vcrt_FlsFree             000000018000d2cc f   libvcruntime:winapi_downlevel.obj
 0001:0000c314       __vcrt_FlsGetValue         000000018000d314 f   libvcruntime:winapi_downlevel.obj
 0001:0000c35c       __vcrt_FlsSetValue         000000018000d35c f   libvcruntime:winapi_downlevel.obj
 0001:0000c3b0       __vcrt_InitializeCriticalSectionEx 000000018000d3b0 f   libvcruntime:winapi_downlevel.obj
 0001:0000c430       _CallSettingFrame          000000018000d430 f   libvcruntime:handlers.obj
 0001:0000c480       _CallSettingFrame_LookupContinuationIndex 000000018000d480 f   libvcruntime:handlers.obj
 0001:0000c4b0       _CallSettingFrame_NotifyContinuationAddr 000000018000d4b0 f   libvcruntime:handlers.obj
 0001:0000c4e0       _CallSettingFrameEncoded   000000018000d4e0 f   libvcruntime:handlers.obj
 0001:0000c540       memcpy_repmovs             000000018000d540 f   libvcruntime:memcpy.obj
 0001:0000c560       memcpy                     000000018000d560 f   libvcruntime:memcpy.obj
 0001:0000c560       memmove                    000000018000d560 f   libvcruntime:memcpy.obj
 0001:0000c938       __acrt_call_reportfault    000000018000d938 f   libucrt:invalid_parameter.obj
 0001:0000ca94       __acrt_initialize_invalid_parameter_handler 000000018000da94 f   libucrt:invalid_parameter.obj
 0001:0000ca9c       _invalid_parameter         000000018000da9c f   libucrt:invalid_parameter.obj
 0001:0000cb4c       _invalid_parameter_noinfo  000000018000db4c f   libucrt:invalid_parameter.obj
 0001:0000cb6c       _invalid_parameter_noinfo_noreturn 000000018000db6c f   libucrt:invalid_parameter.obj
 0001:0000cb9c       _invoke_watson             000000018000db9c f   libucrt:invalid_parameter.obj
 0001:0000cbe4       strerror                   000000018000dbe4 f   libucrt:strerror.obj
 0001:0000d3a4       ??$ftprintf@PEAU_iobuf@@PEB_WAEBQEB_WAEBQEB_WAEBI@?$__crt_char_traits@_W@@SAH$$QEAPEAU_iobuf@@$$QEAPEB_WAEBQEB_W2AEBI@Z 000000018000e3a4 f i libucrt:assert.obj
 0001:0000d3cc       _wassert                   000000018000e3cc f   libucrt:assert.obj
 0001:0000d440       fwprintf                   000000018000e440 f i libucrt:assert.obj
 0001:0000d484       swprintf                   000000018000e484 f i libucrt:assert.obj
 0001:0000d4d8       ??0_LocaleUpdate@@QEAA@QEAU__crt_locale_pointers@@@Z 000000018000e4d8 f i libucrt:stricmp.obj
 0001:0000d574       __ascii_stricmp            000000018000e574 f   libucrt:stricmp.obj
 0001:0000d5b0       _stricmp                   000000018000e5b0 f   libucrt:stricmp.obj
 0001:0000d5f8       _stricmp_l                 000000018000e5f8 f   libucrt:stricmp.obj
 0001:0000d680       __acrt_errno_from_os_error 000000018000e680 f   libucrt:errno.obj
 0001:0000d6c8       __acrt_errno_map_os_error  000000018000e6c8 f   libucrt:errno.obj
 0001:0000d718       __doserrno                 000000018000e718 f   libucrt:errno.obj
 0001:0000d738       _errno                     000000018000e738 f   libucrt:errno.obj
 0001:0000d758       abort                      000000018000e758 f   libucrt:abort.obj
 0001:0000d7b0       free                       000000018000e7b0 f   libucrt:free.obj
 0001:0000d7c4       malloc                     000000018000e7c4 f   libucrt:malloc.obj
 0001:0000d7cc       __acrt_initialize_stdio    000000018000e7cc f   libucrt:_file.obj
 0001:0000d8ec       __acrt_iob_func            000000018000e8ec f   libucrt:_file.obj
 0001:0000d900       __acrt_uninitialize_stdio  000000018000e900 f   libucrt:_file.obj
 0001:0000d95c       _lock_file                 000000018000e95c f   libucrt:_file.obj
 0001:0000d968       _unlock_file               000000018000e968 f   libucrt:_file.obj
 0001:0000dbc8       ??$ensure_buffer_is_big_enough@D@formatting_buffer@__crt_stdio_output@@QEAA_N_K@Z 000000018000ebc8 f i libucrt:output.obj
 0001:0000dc70       ??$ensure_buffer_is_big_enough@_W@formatting_buffer@__crt_stdio_output@@QEAA_N_K@Z 000000018000ec70 f i libucrt:output.obj
 0001:0000dd1c       ??$is_wide_character_specifier@_W@__crt_stdio_output@@YA_N_K_WW4length_modifier@0@@Z 000000018000ed1c f i libucrt:output.obj
 0001:0000dd5c       ??$type_case_integer_parse_into_buffer@I@?$output_processor@DV?$stream_output_adapter@D@__crt_stdio_output@@V?$standard_base@DV?$stream_output_adapter@D@__crt_stdio_output@@@2@@__crt_stdio_output@@AEAAXII_N@Z 000000018000ed5c f i libucrt:output.obj
 0001:0000dde4       ??$type_case_integer_parse_into_buffer@I@?$output_processor@_WV?$stream_output_adapter@_W@__crt_stdio_output@@V?$standard_base@_WV?$stream_output_adapter@_W@__crt_stdio_output@@@2@@__crt_stdio_output@@AEAAXII_N@Z 000000018000ede4 f i libucrt:output.obj
 0001:0000dde4       ??$type_case_integer_parse_into_buffer@I@?$output_processor@_WV?$string_output_adapter@_W@__crt_stdio_output@@V?$standard_base@_WV?$string_output_adapter@_W@__crt_stdio_output@@@2@@__crt_stdio_output@@AEAAXII_N@Z 000000018000ede4 f i libucrt:output.obj
 0001:0000de88       ??$type_case_integer_parse_into_buffer@_K@?$output_processor@DV?$stream_output_adapter@D@__crt_stdio_output@@V?$standard_base@DV?$stream_output_adapter@D@__crt_stdio_output@@@2@@__crt_stdio_output@@AEAAX_KI_N@Z 000000018000ee88 f i libucrt:output.obj
 0001:0000df18       ??$type_case_integer_parse_into_buffer@_K@?$output_processor@_WV?$string_output_adapter@_W@__crt_stdio_output@@V?$standard_base@_WV?$string_output_adapter@_W@__crt_stdio_output@@@2@@__crt_stdio_output@@AEAAX_KI_N@Z 000000018000ef18 f i libucrt:output.obj
 0001:0000df18       ??$type_case_integer_parse_into_buffer@_K@?$output_processor@_WV?$stream_output_adapter@_W@__crt_stdio_output@@V?$standard_base@_WV?$stream_output_adapter@_W@__crt_stdio_output@@@2@@__crt_stdio_output@@AEAAX_KI_N@Z 000000018000ef18 f i libucrt:output.obj
 0001:0000dfbc       ??$write_multiple_characters@V?$stream_output_adapter@D@__crt_stdio_output@@D@__crt_stdio_output@@YAXAEBV?$stream_output_adapter@D@0@DHQEAH@Z 000000018000efbc f i libucrt:output.obj
 0001:0000e048       ??$write_multiple_characters@V?$stream_output_adapter@_W@__crt_stdio_output@@D@__crt_stdio_output@@YAXAEBV?$stream_output_adapter@_W@0@DHQEAH@Z 000000018000f048 f i libucrt:output.obj
 0001:0000e0dc       ??$write_multiple_characters@V?$string_output_adapter@_W@__crt_stdio_output@@D@__crt_stdio_output@@YAXAEBV?$string_output_adapter@_W@0@DHQEAH@Z 000000018000f0dc f i libucrt:output.obj
 0001:0000e3bc       ?crop_zeroes@__crt_stdio_output@@YAXPEADQEAU__crt_locale_pointers@@@Z 000000018000f3bc f i libucrt:output.obj
 0001:0000e428       ?parse_int_from_format_string@?$output_processor@DV?$stream_output_adapter@D@__crt_stdio_output@@V?$standard_base@DV?$stream_output_adapter@D@__crt_stdio_output@@@2@@__crt_stdio_output@@AEAA_NQEAH@Z 000000018000f428 f i libucrt:output.obj
 0001:0000e4cc       ?parse_int_from_format_string@?$output_processor@_WV?$stream_output_adapter@_W@__crt_stdio_output@@V?$standard_base@_WV?$stream_output_adapter@_W@__crt_stdio_output@@@2@@__crt_stdio_output@@AEAA_NQEAH@Z 000000018000f4cc f i libucrt:output.obj
 0001:0000e4cc       ?parse_int_from_format_string@?$output_processor@_WV?$string_output_adapter@_W@__crt_stdio_output@@V?$standard_base@_WV?$string_output_adapter@_W@__crt_stdio_output@@@2@@__crt_stdio_output@@AEAA_NQEAH@Z 000000018000f4cc f i libucrt:output.obj
 0001:0000e570       ?process@?$output_processor@DV?$stream_output_adapter@D@__crt_stdio_output@@V?$standard_base@DV?$stream_output_adapter@D@__crt_stdio_output@@@2@@__crt_stdio_output@@QEAAHXZ 000000018000f570 f i libucrt:output.obj
 0001:0000e788       ?process@?$output_processor@_WV?$stream_output_adapter@_W@__crt_stdio_output@@V?$standard_base@_WV?$stream_output_adapter@_W@__crt_stdio_output@@@2@@__crt_stdio_output@@QEAAHXZ 000000018000f788 f i libucrt:output.obj
 0001:0000e9f4       ?process@?$output_processor@_WV?$string_output_adapter@_W@__crt_stdio_output@@V?$standard_base@_WV?$string_output_adapter@_W@__crt_stdio_output@@@2@@__crt_stdio_output@@QEAAHXZ 000000018000f9f4 f i libucrt:output.obj
 0001:0000ec70       ?state_case_normal@?$output_processor@DV?$stream_output_adapter@D@__crt_stdio_output@@V?$standard_base@DV?$stream_output_adapter@D@__crt_stdio_output@@@2@@__crt_stdio_output@@AEAA_NXZ 000000018000fc70 f i libucrt:output.obj
 0001:0000ece0       ?state_case_normal_tchar@?$output_processor@DV?$stream_output_adapter@D@__crt_stdio_output@@V?$standard_base@DV?$stream_output_adapter@D@__crt_stdio_output@@@2@@__crt_stdio_output@@AEAA_ND@Z 000000018000fce0 f i libucrt:output.obj
 0001:0000ed84       ?state_case_size@?$output_processor@DV?$stream_output_adapter@D@__crt_stdio_output@@V?$standard_base@DV?$stream_output_adapter@D@__crt_stdio_output@@@2@@__crt_stdio_output@@AEAA_NXZ 000000018000fd84 f i libucrt:output.obj
 0001:0000eef8       ?state_case_size@?$output_processor@_WV?$stream_output_adapter@_W@__crt_stdio_output@@V?$standard_base@_WV?$stream_output_adapter@_W@__crt_stdio_output@@@2@@__crt_stdio_output@@AEAA_NXZ 000000018000fef8 f i libucrt:output.obj
 0001:0000f090       ?state_case_size@?$output_processor@_WV?$string_output_adapter@_W@__crt_stdio_output@@V?$standard_base@_WV?$string_output_adapter@_W@__crt_stdio_output@@@2@@__crt_stdio_output@@AEAA_NXZ 0000000180010090 f i libucrt:output.obj
 0001:0000f228       ?state_case_type@?$output_processor@DV?$stream_output_adapter@D@__crt_stdio_output@@V?$standard_base@DV?$stream_output_adapter@D@__crt_stdio_output@@@2@@__crt_stdio_output@@AEAA_NXZ 0000000180010228 f i libucrt:output.obj
 0001:0000f4ac       ?state_case_type@?$output_processor@_WV?$stream_output_adapter@_W@__crt_stdio_output@@V?$standard_base@_WV?$stream_output_adapter@_W@__crt_stdio_output@@@2@@__crt_stdio_output@@AEAA_NXZ 00000001800104ac f i libucrt:output.obj
 0001:0000f78c       ?state_case_type@?$output_processor@_WV?$string_output_adapter@_W@__crt_stdio_output@@V?$standard_base@_WV?$string_output_adapter@_W@__crt_stdio_output@@@2@@__crt_stdio_output@@AEAA_NXZ 000000018001078c f i libucrt:output.obj
 0001:0000fa58       ?type_case_Z@?$output_processor@DV?$stream_output_adapter@D@__crt_stdio_output@@V?$standard_base@DV?$stream_output_adapter@D@__crt_stdio_output@@@2@@__crt_stdio_output@@AEAA_NXZ 0000000180010a58 f i libucrt:output.obj
 0001:0000facc       ?type_case_Z@?$output_processor@_WV?$string_output_adapter@_W@__crt_stdio_output@@V?$standard_base@_WV?$string_output_adapter@_W@__crt_stdio_output@@@2@@__crt_stdio_output@@AEAA_NXZ 0000000180010acc f i libucrt:output.obj
 0001:0000facc       ?type_case_Z@?$output_processor@_WV?$stream_output_adapter@_W@__crt_stdio_output@@V?$standard_base@_WV?$stream_output_adapter@_W@__crt_stdio_output@@@2@@__crt_stdio_output@@AEAA_NXZ 0000000180010acc f i libucrt:output.obj
 0001:0000fb48       ?type_case_a@?$output_processor@DV?$stream_output_adapter@D@__crt_stdio_output@@V?$standard_base@DV?$stream_output_adapter@D@__crt_stdio_output@@@2@@__crt_stdio_output@@AEAA_NXZ 0000000180010b48 f i libucrt:output.obj
 0001:0000fd60       ?type_case_a@?$output_processor@_WV?$stream_output_adapter@_W@__crt_stdio_output@@V?$standard_base@_WV?$stream_output_adapter@_W@__crt_stdio_output@@@2@@__crt_stdio_output@@AEAA_NXZ 0000000180010d60 f i libucrt:output.obj
 0001:0000fd60       ?type_case_a@?$output_processor@_WV?$string_output_adapter@_W@__crt_stdio_output@@V?$standard_base@_WV?$string_output_adapter@_W@__crt_stdio_output@@@2@@__crt_stdio_output@@AEAA_NXZ 0000000180010d60 f i libucrt:output.obj
 0001:0000ff9c       ?type_case_c_tchar@?$output_processor@DV?$stream_output_adapter@D@__crt_stdio_output@@V?$standard_base@DV?$stream_output_adapter@D@__crt_stdio_output@@@2@@__crt_stdio_output@@AEAA_ND@Z 0000000180010f9c f i libucrt:output.obj
 0001:00010058       ?type_case_c_tchar@?$output_processor@_WV?$stream_output_adapter@_W@__crt_stdio_output@@V?$standard_base@_WV?$stream_output_adapter@_W@__crt_stdio_output@@@2@@__crt_stdio_output@@AEAA_N_W@Z 0000000180011058 f i libucrt:output.obj
 0001:00010058       ?type_case_c_tchar@?$output_processor@_WV?$string_output_adapter@_W@__crt_stdio_output@@V?$standard_base@_WV?$string_output_adapter@_W@__crt_stdio_output@@@2@@__crt_stdio_output@@AEAA_N_W@Z 0000000180011058 f i libucrt:output.obj
 0001:00010100       ?type_case_integer@?$output_processor@DV?$stream_output_adapter@D@__crt_stdio_output@@V?$standard_base@DV?$stream_output_adapter@D@__crt_stdio_output@@@2@@__crt_stdio_output@@AEAA_NI_N@Z 0000000180011100 f i libucrt:output.obj
 0001:000102c8       ?type_case_integer@?$output_processor@_WV?$stream_output_adapter@_W@__crt_stdio_output@@V?$standard_base@_WV?$stream_output_adapter@_W@__crt_stdio_output@@@2@@__crt_stdio_output@@AEAA_NI_N@Z 00000001800112c8 f i libucrt:output.obj
 0001:000102c8       ?type_case_integer@?$output_processor@_WV?$string_output_adapter@_W@__crt_stdio_output@@V?$standard_base@_WV?$string_output_adapter@_W@__crt_stdio_output@@@2@@__crt_stdio_output@@AEAA_NI_N@Z 00000001800112c8 f i libucrt:output.obj
 0001:00010494       ?type_case_n@?$output_processor@_WV?$string_output_adapter@_W@__crt_stdio_output@@V?$standard_base@_WV?$string_output_adapter@_W@__crt_stdio_output@@@2@@__crt_stdio_output@@AEAA_NXZ 0000000180011494 f i libucrt:output.obj
 0001:00010494       ?type_case_n@?$output_processor@DV?$stream_output_adapter@D@__crt_stdio_output@@V?$standard_base@DV?$stream_output_adapter@D@__crt_stdio_output@@@2@@__crt_stdio_output@@AEAA_NXZ 0000000180011494 f i libucrt:output.obj
 0001:00010494       ?type_case_n@?$output_processor@_WV?$stream_output_adapter@_W@__crt_stdio_output@@V?$standard_base@_WV?$stream_output_adapter@_W@__crt_stdio_output@@@2@@__crt_stdio_output@@AEAA_NXZ 0000000180011494 f i libucrt:output.obj
 0001:00010570       ?type_case_s@?$output_processor@DV?$stream_output_adapter@D@__crt_stdio_output@@V?$standard_base@DV?$stream_output_adapter@D@__crt_stdio_output@@@2@@__crt_stdio_output@@AEAA_NXZ 0000000180011570 f i libucrt:output.obj
 0001:00010608       ?type_case_s@?$output_processor@_WV?$stream_output_adapter@_W@__crt_stdio_output@@V?$standard_base@_WV?$stream_output_adapter@_W@__crt_stdio_output@@@2@@__crt_stdio_output@@AEAA_NXZ 0000000180011608 f i libucrt:output.obj
 0001:00010608       ?type_case_s@?$output_processor@_WV?$string_output_adapter@_W@__crt_stdio_output@@V?$standard_base@_WV?$string_output_adapter@_W@__crt_stdio_output@@@2@@__crt_stdio_output@@AEAA_NXZ 0000000180011608 f i libucrt:output.obj
 0001:000106d0       ?validate_stream_is_ansi_if_required@?$__acrt_stdio_char_traits@D@@SA_NQEAU_iobuf@@@Z 00000001800116d0 f i libucrt:output.obj
 0001:0001076c       ?write_stored_string_tchar@?$output_processor@DV?$stream_output_adapter@D@__crt_stdio_output@@V?$standard_base@DV?$stream_output_adapter@D@__crt_stdio_output@@@2@@__crt_stdio_output@@AEAA_ND@Z 000000018001176c f i libucrt:output.obj
 0001:00010890       ?write_stored_string_tchar@?$output_processor@_WV?$stream_output_adapter@_W@__crt_stdio_output@@V?$standard_base@_WV?$stream_output_adapter@_W@__crt_stdio_output@@@2@@__crt_stdio_output@@AEAA_N_W@Z 0000000180011890 f i libucrt:output.obj
 0001:00010998       ?write_stored_string_tchar@?$output_processor@_WV?$string_output_adapter@_W@__crt_stdio_output@@V?$standard_base@_WV?$string_output_adapter@_W@__crt_stdio_output@@@2@@__crt_stdio_output@@AEAA_N_W@Z 0000000180011998 f i libucrt:output.obj
 0001:00010a84       ?write_string@?$string_output_adapter@_W@__crt_stdio_output@@QEBAXQEB_WHQEAHAEAV__crt_deferred_errno_cache@@@Z 0000000180011a84 f i libucrt:output.obj
 0001:00010b2c       ?write_string_impl@?$output_adapter_common@DV?$stream_output_adapter@D@__crt_stdio_output@@@__crt_stdio_output@@IEBAXQEBDHQEAHAEAV__crt_deferred_errno_cache@@@Z 0000000180011b2c f i libucrt:output.obj
 0001:00010c24       ?write_string_impl@?$output_adapter_common@_WV?$stream_output_adapter@_W@__crt_stdio_output@@@__crt_stdio_output@@IEBAXQEB_WHQEAHAEAV__crt_deferred_errno_cache@@@Z 0000000180011c24 f i libucrt:output.obj
 0001:00010d28       __stdio_common_vfprintf    0000000180011d28 f   libucrt:output.obj
 0001:00010db4       __stdio_common_vfwprintf   0000000180011db4 f   libucrt:output.obj
 0001:00010e40       __stdio_common_vswprintf   0000000180011e40 f   libucrt:output.obj
 0001:00010e48       __acrt_initialize_new_handler 0000000180011e48 f   libucrt:new_handler.obj
 0001:00010e50       _callnewh                  0000000180011e50 f   libucrt:new_handler.obj
 0001:00010e80       _query_new_handler         0000000180011e80 f   libucrt:new_handler.obj
 0001:00010eb4       _initterm                  0000000180011eb4 f   libucrt:initterm.obj
 0001:00010f18       _initterm_e                0000000180011f18 f   libucrt:initterm.obj
 0001:00010f58       _seh_filter_dll            0000000180011f58 f   libucrt:exception_filter.obj
 0001:00010f6c       _seh_filter_exe            0000000180011f6c f   libucrt:exception_filter.obj
 0001:0001135c       __acrt_initialize_thread_local_exit_callback 000000018001235c f   libucrt:exit.obj
 0001:00011364       _cexit                     0000000180012364 f   libucrt:exit.obj
 0001:00011374       _exit                      0000000180012374 f   libucrt:exit.obj
 0001:00011380       _is_c_termination_complete 0000000180012380 f   libucrt:exit.obj
 0001:0001154c       __acrt_allocate_buffer_for_argv 000000018001254c f   libucrt:argv_parsing.obj
 0001:000115ac       _configure_narrow_argv     00000001800125ac f   libucrt:argv_parsing.obj
 0001:00011924       __dcrt_uninitialize_environments_nolock 0000000180012924 f   libucrt:environment_initialization.obj
 0001:0001195c       _initialize_narrow_environment 000000018001295c f   libucrt:environment_initialization.obj
 0001:00011ab8       _execute_onexit_table      0000000180012ab8 f   libucrt:onexit.obj
 0001:00011af4       _initialize_onexit_table   0000000180012af4 f   libucrt:onexit.obj
 0001:00011b54       __acrt_uninitialize_command_line 0000000180012b54 f   libucrt:argv_data.obj
 0001:00011c4c       __acrt_initialize          0000000180012c4c f   libucrt:initialization.obj
 0001:00011c60       __acrt_thread_attach       0000000180012c60 f   libucrt:initialization.obj
 0001:00011c74       __acrt_thread_detach       0000000180012c74 f   libucrt:initialization.obj
 0001:00011c84       __acrt_uninitialize        0000000180012c84 f   libucrt:initialization.obj
 0001:00011cbc       __acrt_uninitialize_critical 0000000180012cbc f   libucrt:initialization.obj
 0001:00011ccc       terminate                  0000000180012ccc f   libucrt:terminate.obj
 0001:00011cec       strcpy_s                   0000000180012cec f   libucrt:strcpy_s.obj
 0001:00011d4c       calloc                     0000000180012d4c f   libucrt:calloc.obj
 0001:00011d54       ??$parse_integer@KV?$c_string_character_source@D@__crt_strtox@@@__crt_strtox@@YAKQEAU__crt_locale_pointers@@V?$c_string_character_source@D@0@H_N@Z 0000000180012d54 f i libucrt:atox.obj
 0001:0001205c       ??$parse_integer@KV?$c_string_character_source@_W@__crt_strtox@@@__crt_strtox@@YAKQEAU__crt_locale_pointers@@V?$c_string_character_source@_W@0@H_N@Z 000000018001305c f i libucrt:atox.obj
 0001:00012704       _ischartype_l              0000000180013704 f i libucrt:atox.obj
 0001:00012790       strncmp                    0000000180013790 f   libucrt:strncmp.obj
 0001:00012810       wcsncmp                    0000000180013810 f   libucrt:wcsncmp.obj
 0001:00012bb4       __acrt_freeptd             0000000180013bb4 f   libucrt:per_thread_data.obj
 0001:00012bf8       __acrt_getptd              0000000180013bf8 f   libucrt:per_thread_data.obj
 0001:00012ccc       __acrt_getptd_head         0000000180013ccc f   libucrt:per_thread_data.obj
 0001:00012d74       __acrt_getptd_noexit       0000000180013d74 f   libucrt:per_thread_data.obj
 0001:00012e40       __acrt_initialize_ptd      0000000180013e40 f   libucrt:per_thread_data.obj
 0001:00012e7c       __acrt_uninitialize_ptd    0000000180013e7c f   libucrt:per_thread_data.obj
 0001:00012ea0       _calloc_base               0000000180013ea0 f   libucrt:calloc_base.obj
 0001:00012f18       _free_base                 0000000180013f18 f   libucrt:free_base.obj
 0001:00012f58       __sys_errlist              0000000180013f58 f   libucrt:syserr.obj
 0001:00012f60       __sys_nerr                 0000000180013f60 f   libucrt:syserr.obj
 0001:00012f68       strncpy_s                  0000000180013f68 f   libucrt:strncpy_s.obj
 0001:0001303c       _query_app_type            000000018001403c f   libucrt:report_runtime_error.obj
 0001:00013184       _itow_s                    0000000180014184 f   libucrt:xtoa.obj
 0001:000131a4       _set_error_mode            00000001800141a4 f   libucrt:set_error_mode.obj
 0001:000131e4       wcscat_s                   00000001800141e4 f   libucrt:wcscat_s.obj
 0001:00013264       wcscpy_s                   0000000180014264 f   libucrt:wcscpy_s.obj
 0001:000132cc       wcsncat_s                  00000001800142cc f   libucrt:wcsncat_s.obj
 0001:000133cc       ??$__acrt_wcs_to_mbs_cp@U__crt_win32_buffer_no_resizing@@@@YAHQEB_WAEAV?$__crt_win32_buffer@DU__crt_win32_buffer_no_resizing@@@@I@Z 00000001800143cc f i libucrt:getmodulefilenamea.obj
 0001:000134e0       __acrt_GetModuleFileNameA  00000001800144e0 f   libucrt:getmodulefilenamea.obj
 0001:00013600       __acrt_show_wide_message_box 0000000180014600 f   libucrt:crtmbox.obj
 0001:000138c0       __acrt_stdio_flush_nolock  00000001800148c0 f   libucrt:fflush.obj
 0001:0001393c       _fflush_nolock             000000018001493c f   libucrt:fflush.obj
 0001:00013988       _flushall                  0000000180014988 f   libucrt:fflush.obj
 0001:00013990       fflush                     0000000180014990 f   libucrt:fflush.obj
 0001:00013b18       setvbuf                    0000000180014b18 f   libucrt:setvbuf.obj
 0001:00013bfc       __acrt_get_sigabrt_handler 0000000180014bfc f   libucrt:signal.obj
 0001:00013c2c       __acrt_initialize_signal_handlers 0000000180014c2c f   libucrt:signal.obj
 0001:00013c4c       raise                      0000000180014c4c f   libucrt:signal.obj
 0001:00013eb8       __acrt_update_locale_info  0000000180014eb8 f   libucrt:locale_update.obj
 0001:00013eec       __acrt_update_multibyte_info 0000000180014eec f   libucrt:locale_update.obj
 0001:00013f90       __acrt_set_locale_changed  0000000180014f90 f   libucrt:wsetlocale.obj
 0001:00013f9c       __acrt_uninitialize_locale 0000000180014f9c f   libucrt:wsetlocale.obj
 0001:00013fcc       _malloc_base               0000000180014fcc f   libucrt:malloc_base.obj
 0001:00014204       __acrt_AppPolicyGetProcessTerminationMethodInternal 0000000180015204 f   libucrt:winapi_thunks.obj
 0001:00014254       __acrt_AppPolicyGetShowDeveloperDiagnosticInternal 0000000180015254 f   libucrt:winapi_thunks.obj
 0001:000142a4       __acrt_AppPolicyGetWindowingModelInternal 00000001800152a4 f   libucrt:winapi_thunks.obj
 0001:000142f4       __acrt_AreFileApisANSI     00000001800152f4 f   libucrt:winapi_thunks.obj
 0001:00014330       __acrt_FlsAlloc            0000000180015330 f   libucrt:winapi_thunks.obj
 0001:00014378       __acrt_FlsFree             0000000180015378 f   libucrt:winapi_thunks.obj
 0001:000143c0       __acrt_FlsGetValue         00000001800153c0 f   libucrt:winapi_thunks.obj
 0001:00014408       __acrt_FlsSetValue         0000000180015408 f   libucrt:winapi_thunks.obj
 0001:0001445c       __acrt_InitializeCriticalSectionEx 000000018001545c f   libucrt:winapi_thunks.obj
 0001:000144c0       __acrt_LCMapStringEx       00000001800154c0 f   libucrt:winapi_thunks.obj
 0001:0001459c       __acrt_LocaleNameToLCID    000000018001559c f   libucrt:winapi_thunks.obj
 0001:000145ec       __acrt_MessageBoxW         00000001800155ec f   libucrt:winapi_thunks.obj
 0001:00014660       __acrt_can_show_message_box 0000000180015660 f   libucrt:winapi_thunks.obj
 0001:000146d0       __acrt_get_parent_window   00000001800156d0 f   libucrt:winapi_thunks.obj
 0001:00014748       __acrt_initialize_winapi_thunks 0000000180015748 f   libucrt:winapi_thunks.obj
 0001:0001477c       __acrt_is_interactive      000000018001577c f   libucrt:winapi_thunks.obj
 0001:00014844       __acrt_uninitialize_winapi_thunks 0000000180015844 f   libucrt:winapi_thunks.obj
 0001:00014888       _fcloseall                 0000000180015888 f   libucrt:closeall.obj
 0001:0001493c       __acrt_stdio_free_buffer_nolock 000000018001593c f   libucrt:_freebuf.obj
 0001:00014b78       __acrt_initialize_lowio    0000000180015b78 f   libucrt:ioinit.obj
 0001:00014bb4       __acrt_uninitialize_lowio  0000000180015bb4 f   libucrt:ioinit.obj
 0001:00014bf4       strtol                     0000000180015bf4 f   libucrt:strtox.obj
 0001:00014c20       wcstol                     0000000180015c20 f   libucrt:strtox.obj
 0001:00014c4c       _mbtowc_l                  0000000180015c4c f   libucrt:mbtowc.obj
 0001:00014dcc       mbtowc                     0000000180015dcc f   libucrt:mbtowc.obj
 0001:00014dd4       _wctomb_s_l                0000000180015dd4 f   libucrt:wctomb.obj
 0001:00014f70       wctomb_s                   0000000180015f70 f   libucrt:wctomb.obj
 0001:00014f84       strnlen                    0000000180015f84 f   libucrt:strnlen.obj
 0001:000150d4       wcsnlen                    00000001800160d4 f   libucrt:strnlen.obj
 0001:00015b44       __acrt_fp_format           0000000180016b44 f   libucrt:cvt.obj
 0001:00015e48       _fputwc_nolock             0000000180016e48 f   libucrt:fputwc.obj
 0001:00015fc4       _fileno                    0000000180016fc4 f   libucrt:fileno.obj
 0001:00015fec       _fputc_nolock              0000000180016fec f   libucrt:fputc.obj
 0001:00016004       _get_printf_count_output   0000000180017004 f   libucrt:printf_count_output.obj
 0001:0001601c       __acrt_stdio_begin_temporary_buffering_nolock 000000018001701c f   libucrt:_sftbuf.obj
 0001:000160ec       __acrt_stdio_end_temporary_buffering_nolock 00000001800170ec f   libucrt:_sftbuf.obj
 0001:00016128       __acrt_initialize_locks    0000000180017128 f   libucrt:locks.obj
 0001:00016170       __acrt_lock                0000000180017170 f   libucrt:locks.obj
 0001:0001618c       __acrt_uninitialize_locks  000000018001718c f   libucrt:locks.obj
 0001:000161c4       __acrt_unlock              00000001800171c4 f   libucrt:locks.obj
 0001:000161e0       __acrt_get_developer_information_policy 00000001800171e0 f   libucrt:win_policies.obj
 0001:00016234       __acrt_get_process_end_policy 0000000180017234 f   libucrt:win_policies.obj
 0001:00016270       __acrt_get_windowing_model_policy 0000000180017270 f   libucrt:win_policies.obj
 0001:000162f0       ??$__acrt_mbs_to_wcs_cp@U__crt_win32_buffer_internal_dynamic_resizing@@@@YAHQEBDAEAV?$__crt_win32_buffer@_WU__crt_win32_buffer_internal_dynamic_resizing@@@@I@Z 00000001800172f0 f i libucrt:argv_wildcards.obj
 0001:00016468       ??$__acrt_wcs_to_mbs_cp@U__crt_win32_buffer_internal_dynamic_resizing@@@@YAHQEB_WAEAV?$__crt_win32_buffer@DU__crt_win32_buffer_internal_dynamic_resizing@@@@I@Z 0000000180017468 f i libucrt:argv_wildcards.obj
 0001:00016c98       __acrt_expand_narrow_argv_wildcards 0000000180017c98 f   libucrt:argv_wildcards.obj
 0001:000173cc       __acrt_initialize_multibyte 00000001800183cc f   libucrt:mbctype.obj
 0001:0001742c       __acrt_update_thread_multibyte_data 000000018001842c f   libucrt:mbctype.obj
 0001:00017448       _setmbcp_nolock            0000000180018448 f   libucrt:mbctype.obj
 0001:0001777c       _ismbblead                 000000018001877c f   libucrt:ismbbyte.obj
 0001:00017790       __acrt_initialize_command_line 0000000180018790 f   libucrt:argv_data.obj
 0001:000177b8       __acrt_MultiByteToWideChar 00000001800187b8 f   libucrt:multibytetowidechar.obj
 0001:00017814       __acrt_WideCharToMultiByte 0000000180018814 f   libucrt:widechartomultibyte.obj
 0001:000178ac       __dcrt_get_narrow_environment_from_os 00000001800188ac f   libucrt:get_environment_from_os.obj
 0001:000179b0       _recalloc_base             00000001800189b0 f   libucrt:recalloc.obj
 0001:00017a48       __acrt_initialize_heap     0000000180018a48 f   libucrt:heap_handle.obj
 0001:00017a64       __acrt_uninitialize_heap   0000000180018a64 f   libucrt:heap_handle.obj
 0001:00017a70       __acrt_execute_initializers 0000000180018a70 f   libucrt:shared_initialization.obj
 0001:00017af0       __acrt_execute_uninitializers 0000000180018af0 f   libucrt:shared_initialization.obj
 0001:00017b2c       __acrt_has_user_matherr    0000000180018b2c f   libucrt:matherr.obj
 0001:00017b4c       __acrt_initialize_user_matherr 0000000180018b4c f   libucrt:matherr.obj
 0001:00017b54       __acrt_invoke_user_matherr 0000000180018b54 f   libucrt:matherr.obj
 0001:00017b84       __pctype_func              0000000180018b84 f   libucrt:ctype.obj
 0001:00017bb4       iswctype                   0000000180018bb4 f   libucrt:iswctype.obj
 0001:00017c24       _isctype_l                 0000000180018c24 f   libucrt:isctype.obj
 0001:00017d2c       __acrt_add_locale_ref      0000000180018d2c f   libucrt:locale_refcounting.obj
 0001:00017db8       __acrt_free_locale         0000000180018db8 f   libucrt:locale_refcounting.obj
 0001:00017f30       __acrt_locale_add_lc_time_reference 0000000180018f30 f   libucrt:locale_refcounting.obj
 0001:00017f58       __acrt_locale_free_lc_time_if_unreferenced 0000000180018f58 f   libucrt:locale_refcounting.obj
 0001:00017f90       __acrt_locale_release_lc_time_reference 0000000180018f90 f   libucrt:locale_refcounting.obj
 0001:00017fb8       __acrt_release_locale_ref  0000000180018fb8 f   libucrt:locale_refcounting.obj
 0001:00018060       __acrt_update_thread_locale_data 0000000180019060 f   libucrt:locale_refcounting.obj
 0001:000180cc       _updatetlocinfoEx_nolock   00000001800190cc f   libucrt:locale_refcounting.obj
 0001:00018134       _query_new_mode            0000000180019134 f   libucrt:new_mode.obj
 0001:0001813c       _isleadbyte_l              000000018001913c f i libucrt:_wctype.obj
 0001:00018188       ?__mbrtowc_utf8@__crt_mbstring@@YA_KPEA_WPEBD_KPEAU_Mbstatet@@@Z 0000000180019188 f   libucrt:mbrtowc.obj
 0001:000181c4       ?__mbsrtowcs_utf8@__crt_mbstring@@YA_KPEA_WPEAPEBD_KPEAU_Mbstatet@@@Z 00000001800191c4 f   libucrt:mbrtowc.obj
 0001:000183c8       _commit                    00000001800193c8 f   libucrt:commit.obj
 0001:00018cbc       _write                     0000000180019cbc f   libucrt:write.obj
 0001:00018da8       _write_nolock              0000000180019da8 f   libucrt:write.obj
 0001:00019084       __acrt_locale_free_monetary 000000018001a084 f   libucrt:initmon.obj
 0001:00019190       __acrt_locale_free_numeric 000000018001a190 f   libucrt:initnum.obj
 0001:00019254       __acrt_locale_free_time    000000018001a254 f   libucrt:inittime.obj
 0001:0001935c       __acrt_GetStringTypeA      000000018001a35c f   libucrt:getstringtypea.obj
 0001:000194ec       __acrt_DownlevelLocaleNameToLCID 000000018001a4ec f   libucrt:lcidtoname_downlevel.obj
 0001:0001959c       _fclose_nolock             000000018001a59c f   libucrt:fclose.obj
 0001:00019620       fclose                     000000018001a620 f   libucrt:fclose.obj
 0001:00019684       __acrt_lowio_create_handle_array 000000018001a684 f   libucrt:osfinfo.obj
 0001:0001972c       __acrt_lowio_destroy_handle_array 000000018001a72c f   libucrt:osfinfo.obj
 0001:0001977c       __acrt_lowio_ensure_fh_exists 000000018001a77c f   libucrt:osfinfo.obj
 0001:00019824       __acrt_lowio_lock_fh       000000018001a824 f   libucrt:osfinfo.obj
 0001:0001984c       __acrt_lowio_unlock_fh     000000018001a84c f   libucrt:osfinfo.obj
 0001:00019874       _free_osfhnd               000000018001a874 f   libucrt:osfinfo.obj
 0001:00019930       _get_osfhandle             000000018001a930 f   libucrt:osfinfo.obj
 0001:000199a8       ?__c32rtomb_utf8@__crt_mbstring@@YA_KPEAD_UPEAU_Mbstatet@@@Z 000000018001a9a8 f   libucrt:c32rtomb.obj
 0001:00019a5c       __acrt_fp_strflt_to_string 000000018001aa5c f   libucrt:_fptostr.obj
 0001:00019b40       ?divide@__crt_strtox@@YA_KAEAUbig_integer@1@AEBU21@@Z 000000018001ab40 f i libucrt:cfout.obj
 0001:00019f6c       __acrt_fltout              000000018001af6c f   libucrt:cfout.obj
 0001:0001b470       __acrt_stdio_flush_and_write_narrow_nolock 000000018001c470 f   libucrt:_flsbuf.obj
 0001:0001b55c       __acrt_stdio_flush_and_write_wide_nolock 000000018001c55c f   libucrt:_flsbuf.obj
 0001:0001b648       _isatty                    000000018001c648 f   libucrt:isatty.obj
 0001:0001b6b0       qsort                      000000018001c6b0 f   libucrt:qsort.obj
 0001:0001bb00       strpbrk                    000000018001cb00 f   libucrt:strpbrk.obj
 0001:0001bee0       _mbsdec                    000000018001cee0 f   libucrt:mbsdec.obj
 0001:0001bee8       _mbsdec_l                  000000018001cee8 f   libucrt:mbsdec.obj
 0001:0001c294       __acrt_LCMapStringA        000000018001d294 f   libucrt:lcmapstringa.obj
 0001:0001c344       _msize_base                000000018001d344 f   libucrt:msize.obj
 0001:0001c380       _realloc_base              000000018001d380 f   libucrt:realloc_base.obj
 0001:0001c3fc       __acrt_GetStringTypeW      000000018001d3fc f   libucrt:getstringtypew.obj
 0001:0001c404       ?__mbrtoc32_utf8@__crt_mbstring@@YA_KPEA_UPEBD_KPEAU_Mbstatet@@@Z 000000018001d404 f   libucrt:mbrtoc32.obj
 0001:0001c76c       _lseeki64                  000000018001d76c f   libucrt:lseek.obj
 0001:0001c774       _lseeki64_nolock           000000018001d774 f   libucrt:lseek.obj
 0001:0001c77c       _putwch_nolock             000000018001d77c f   libucrt:putwch.obj
 0001:0001c7b8       __ascii_wcsnicmp           000000018001d7b8 f   libucrt:wcsnicmp.obj
 0001:0001c878       _close                     000000018001d878 f   libucrt:close.obj
 0001:0001c91c       _close_nolock              000000018001d91c f   libucrt:close.obj
 0001:0001c9dc       ?__acrt_stdio_free_stream@@YAXV__crt_stdio_stream@@@Z 000000018001d9dc f   libucrt:stream.obj
 0001:0001c9f8       fegetenv                   000000018001d9f8 f   libucrt:fegetenv.obj
 0001:0001ca18       fesetenv                   000000018001da18 f   libucrt:fesetenv.obj
 0001:0001ca64       feholdexcept               000000018001da64 f   libucrt:feholdexcept.obj
 0001:0001cab4       ceil                       000000018001dab4 f   libucrt:ceil.obj
 0001:0001cb80       log10                      000000018001db80 f   libucrt:log10.obj
 0001:0001d12c       __acrt_stdio_allocate_buffer_nolock 000000018001e12c f   libucrt:_getbuf.obj
 0001:0001d194       __strncnt                  000000018001e194 f   libucrt:strncnt.obj
 0001:0001d1ac       __dcrt_lowio_ensure_console_output_initialized 000000018001e1ac f   libucrt:initcon.obj
 0001:0001d200       __dcrt_terminate_console_output 000000018001e200 f   libucrt:initcon.obj
 0001:0001d21c       __dcrt_write_console       000000018001e21c f   libucrt:initcon.obj
 0001:0001d2dc       __acrt_fenv_get_control    000000018001e2dc f   libucrt:_fenvutils.obj
 0001:0001d3d0       __acrt_fenv_get_status     000000018001e3d0 f   libucrt:_fenvutils.obj
 0001:0001d424       __acrt_fenv_set_control    000000018001e424 f   libucrt:_fenvutils.obj
 0001:0001d56c       __acrt_fenv_set_status     000000018001e56c f   libucrt:_fenvutils.obj
 0001:0001d5f0       _clearfp                   000000018001e5f0 f   libucrt:ieee.obj
 0001:0001d784       _handle_error              000000018001e784 f   libucrt:libm_error.obj
 0001:0001d8ac       _handle_nan                000000018001e8ac f   libucrt:libm_error.obj
 0001:0001d8d0       __acrt_initialize_fma3     000000018001e8d0 f   libucrt:fma3_available.obj
 0001:0001d940       _log10_special             000000018001e940 f   libucrt:log_special.obj
 0001:0001da10       _get_fpsr                  000000018001ea10 f   libucrt:fpsr.obj
 0001:0001da20       _set_fpsr                  000000018001ea20 f   libucrt:fpsr.obj
 0001:0001da2a       _fclrf                     000000018001ea2a f   libucrt:fpsr.obj
 0001:0001da3e       _frnd                      000000018001ea3e f   libucrt:fpsr.obj
 0001:0001da60       _raise_exc                 000000018001ea60 f   libucrt:fpexcept.obj
 0001:0001da88       _raise_exc_ex              000000018001ea88 f   libucrt:fpexcept.obj
 0001:0001dd98       _set_errno_from_matherr    000000018001ed98 f   libucrt:fpexcept.obj
 0001:0001ddc8       _clrfp                     000000018001edc8 f   libucrt:fpctrl.obj
 0001:0001dde8       _ctrlfp                    000000018001ede8 f   libucrt:fpctrl.obj
 0001:0001de64       _set_statfp                000000018001ee64 f   libucrt:fpctrl.obj
 0001:0001de84       _statfp                    000000018001ee84 f   libucrt:fpctrl.obj
 0001:0001de95       IsProcessorFeaturePresent  000000018001ee95 f   kernel32:KERNEL32.dll
 0001:0001de9c       ?DloadAcquireSectionWriteAccess@@YAXXZ 000000018001ee9c f i DelayImp:delayhlp.obj
 0001:0001df48       ?DloadGetSRWLockFunctionPointers@@YAEXZ 000000018001ef48 f i DelayImp:delayhlp.obj
 0001:0001dfe4       ?DloadMakePermanentImageCommit@@YAXPEAX_K@Z 000000018001efe4 f i DelayImp:delayhlp.obj
 0001:0001e07c       ?DloadObtainSection@@YAPEAXPEAK0@Z 000000018001f07c f i DelayImp:delayhlp.obj
 0001:0001e118       ?DloadProtectSection@@YAXKPEAK@Z 000000018001f118 f i DelayImp:delayhlp.obj
 0001:0001e1a8       ?DloadReleaseSectionWriteAccess@@YAXXZ 000000018001f1a8 f i DelayImp:delayhlp.obj
 0001:0001e23c       __delayLoadHelper2         000000018001f23c f   DelayImp:delayhlp.obj
 0001:0001e514       __GSHandlerCheck           000000018001f514 f   LIBCMT:gshandler.obj
 0001:0001e534       __GSHandlerCheckCommon     000000018001f534 f   LIBCMT:gshandler.obj
 0001:0001e590       _FindPESection             000000018001f590 f   LIBCMT:pesect.obj
 0001:0001e5e0       _IsNonwritableInCurrentImage 000000018001f5e0 f   LIBCMT:pesect.obj
 0001:0001e630       _ValidateImageBase         000000018001f630 f   LIBCMT:pesect.obj
 0001:0001e660       __GSHandlerCheck_SEH       000000018001f660 f   LIBCMT:gshandlerseh.obj
 0001:0001e700       _alloca_probe              000000018001f700 f   LIBCMT:chkstk.obj
 0001:0001e700       __chkstk                   000000018001f700 f   LIBCMT:chkstk.obj
 0001:0001e770       memcmp                     000000018001f770 f   libvcruntime:memcmp.obj
 0001:0001e838       strrchr                    000000018001f838 f   libvcruntime:strrchr.obj
 0001:0001e968       __GSHandlerCheck_EH4       000000018001f968 f   LIBCMT:gshandlereh4.obj
 0001:0001ea00       _guard_dispatch_icall_nop  000000018001fa00 f   LIBCMT:guard_dispatch.obj
 0002:00000000       __imp_GetModuleHandleA     0000000180021000     kernel32:KERNEL32.dll
 0002:00000008       __imp_LoadLibraryExA       0000000180021008     kernel32:KERNEL32.dll
 0002:00000010       __imp_SystemTimeToFileTime 0000000180021010     kernel32:KERNEL32.dll
 0002:00000018       __imp_GetSystemTime        0000000180021018     kernel32:KERNEL32.dll
 0002:00000020       __imp_RtlCaptureContext    0000000180021020     kernel32:KERNEL32.dll
 0002:00000028       __imp_RtlLookupFunctionEntry 0000000180021028     kernel32:KERNEL32.dll
 0002:00000030       __imp_RtlVirtualUnwind     0000000180021030     kernel32:KERNEL32.dll
 0002:00000038       __imp_UnhandledExceptionFilter 0000000180021038     kernel32:KERNEL32.dll
 0002:00000040       __imp_SetUnhandledExceptionFilter 0000000180021040     kernel32:KERNEL32.dll
 0002:00000048       __imp_GetCurrentProcess    0000000180021048     kernel32:KERNEL32.dll
 0002:00000050       __imp_TerminateProcess     0000000180021050     kernel32:KERNEL32.dll
 0002:00000058       __imp_IsProcessorFeaturePresent 0000000180021058     kernel32:KERNEL32.dll
 0002:00000060       __imp_QueryPerformanceCounter 0000000180021060     kernel32:KERNEL32.dll
 0002:00000068       __imp_GetCurrentProcessId  0000000180021068     kernel32:KERNEL32.dll
 0002:00000070       __imp_GetCurrentThreadId   0000000180021070     kernel32:KERNEL32.dll
 0002:00000078       __imp_GetSystemTimeAsFileTime 0000000180021078     kernel32:KERNEL32.dll
 0002:00000080       __imp_InitializeSListHead  0000000180021080     kernel32:KERNEL32.dll
 0002:00000088       __imp_IsDebuggerPresent    0000000180021088     kernel32:KERNEL32.dll
 0002:00000090       __imp_GetStartupInfoW      0000000180021090     kernel32:KERNEL32.dll
 0002:00000098       __imp_GetModuleHandleW     0000000180021098     kernel32:KERNEL32.dll
 0002:000000a0       __imp_RtlUnwindEx          00000001800210a0     kernel32:KERNEL32.dll
 0002:000000a8       __imp_RtlPcToFileHeader    00000001800210a8     kernel32:KERNEL32.dll
 0002:000000b0       __imp_RaiseException       00000001800210b0     kernel32:KERNEL32.dll
 0002:000000b8       __imp_InterlockedFlushSList 00000001800210b8     kernel32:KERNEL32.dll
 0002:000000c0       __imp_GetLastError         00000001800210c0     kernel32:KERNEL32.dll
 0002:000000c8       __imp_SetLastError         00000001800210c8     kernel32:KERNEL32.dll
 0002:000000d0       __imp_EncodePointer        00000001800210d0     kernel32:KERNEL32.dll
 0002:000000d8       __imp_EnterCriticalSection 00000001800210d8     kernel32:KERNEL32.dll
 0002:000000e0       __imp_LeaveCriticalSection 00000001800210e0     kernel32:KERNEL32.dll
 0002:000000e8       __imp_DeleteCriticalSection 00000001800210e8     kernel32:KERNEL32.dll
 0002:000000f0       __imp_InitializeCriticalSectionAndSpinCount 00000001800210f0     kernel32:KERNEL32.dll
 0002:000000f8       __imp_TlsAlloc             00000001800210f8     kernel32:KERNEL32.dll
 0002:00000100       __imp_TlsGetValue          0000000180021100     kernel32:KERNEL32.dll
 0002:00000108       __imp_TlsSetValue          0000000180021108     kernel32:KERNEL32.dll
 0002:00000110       __imp_TlsFree              0000000180021110     kernel32:KERNEL32.dll
 0002:00000118       __imp_FreeLibrary          0000000180021118     kernel32:KERNEL32.dll
 0002:00000120       __imp_GetProcAddress       0000000180021120     kernel32:KERNEL32.dll
 0002:00000128       __imp_LoadLibraryExW       0000000180021128     kernel32:KERNEL32.dll
 0002:00000130       __imp_GetStdHandle         0000000180021130     kernel32:KERNEL32.dll
 0002:00000138       __imp_GetFileType          0000000180021138     kernel32:KERNEL32.dll
 0002:00000140       __imp_GetModuleFileNameW   0000000180021140     kernel32:KERNEL32.dll
 0002:00000148       __imp_GetModuleHandleExW   0000000180021148     kernel32:KERNEL32.dll
 0002:00000150       __imp_WriteConsoleW        0000000180021150     kernel32:KERNEL32.dll
 0002:00000158       __imp_ExitProcess          0000000180021158     kernel32:KERNEL32.dll
 0002:00000160       __imp_HeapAlloc            0000000180021160     kernel32:KERNEL32.dll
 0002:00000168       __imp_HeapFree             0000000180021168     kernel32:KERNEL32.dll
 0002:00000170       __imp_WriteFile            0000000180021170     kernel32:KERNEL32.dll
 0002:00000178       __imp_OutputDebugStringW   0000000180021178     kernel32:KERNEL32.dll
 0002:00000180       __imp_LCMapStringW         0000000180021180     kernel32:KERNEL32.dll
 0002:00000188       __imp_FindClose            0000000180021188     kernel32:KERNEL32.dll
 0002:00000190       __imp_FindFirstFileExW     0000000180021190     kernel32:KERNEL32.dll
 0002:00000198       __imp_FindNextFileW        0000000180021198     kernel32:KERNEL32.dll
 0002:000001a0       __imp_IsValidCodePage      00000001800211a0     kernel32:KERNEL32.dll
 0002:000001a8       __imp_GetACP               00000001800211a8     kernel32:KERNEL32.dll
 0002:000001b0       __imp_GetOEMCP             00000001800211b0     kernel32:KERNEL32.dll
 0002:000001b8       __imp_GetCPInfo            00000001800211b8     kernel32:KERNEL32.dll
 0002:000001c0       __imp_GetCommandLineA      00000001800211c0     kernel32:KERNEL32.dll
 0002:000001c8       __imp_GetCommandLineW      00000001800211c8     kernel32:KERNEL32.dll
 0002:000001d0       __imp_MultiByteToWideChar  00000001800211d0     kernel32:KERNEL32.dll
 0002:000001d8       __imp_WideCharToMultiByte  00000001800211d8     kernel32:KERNEL32.dll
 0002:000001e0       __imp_GetEnvironmentStringsW 00000001800211e0     kernel32:KERNEL32.dll
 0002:000001e8       __imp_FreeEnvironmentStringsW 00000001800211e8     kernel32:KERNEL32.dll
 0002:000001f0       __imp_GetProcessHeap       00000001800211f0     kernel32:KERNEL32.dll
 0002:000001f8       __imp_FlushFileBuffers     00000001800211f8     kernel32:KERNEL32.dll
 0002:00000200       __imp_GetConsoleCP         0000000180021200     kernel32:KERNEL32.dll
 0002:00000208       __imp_GetConsoleMode       0000000180021208     kernel32:KERNEL32.dll
 0002:00000210       __imp_GetStringTypeW       0000000180021210     kernel32:KERNEL32.dll
 0002:00000218       __imp_SetStdHandle         0000000180021218     kernel32:KERNEL32.dll
 0002:00000220       __imp_GetFileSizeEx        0000000180021220     kernel32:KERNEL32.dll
 0002:00000228       __imp_SetFilePointerEx     0000000180021228     kernel32:KERNEL32.dll
 0002:00000230       __imp_HeapSize             0000000180021230     kernel32:KERNEL32.dll
 0002:00000238       __imp_HeapReAlloc          0000000180021238     kernel32:KERNEL32.dll
 0002:00000240       __imp_CloseHandle          0000000180021240     kernel32:KERNEL32.dll
 0002:00000248       __imp_CreateFileW          0000000180021248     kernel32:KERNEL32.dll
 0002:00000250       __imp_GetSystemInfo        0000000180021250     kernel32:KERNEL32.dll
 0002:00000258       __imp_VirtualProtect       0000000180021258     kernel32:KERNEL32.dll
 0002:00000260       __imp_VirtualQuery         0000000180021260     kernel32:KERNEL32.dll
 0002:00000268       \177KERNEL32_NULL_THUNK_DATA 0000000180021268     kernel32:KERNEL32.dll
 0002:00000270       __guard_check_icall_fptr   0000000180021270     LIBCMT:guard_support.obj
 0002:00000278       __guard_dispatch_icall_fptr 0000000180021278     LIBCMT:guard_support.obj
 0002:00000280       __xc_a                     0000000180021280     LIBCMT:initializers.obj
 0002:00000288       _register_scrypt_          0000000180021288     scrypt_node.obj
 0002:00000290       __xc_z                     0000000180021290     LIBCMT:initializers.obj
 0002:00000298       __xi_a                     0000000180021298     LIBCMT:initializers.obj
 0002:000002a0       __acrt_stdio_initializer   00000001800212a0     libucrt:stdio_initializer.obj
 0002:000002a8       __acrt_multibyte_initializer 00000001800212a8     libucrt:multibyte_initializer.obj
 0002:000002b0       __acrt_tran_fma3_initializer 00000001800212b0     libucrt:fma3_initializer.obj
 0002:000002b8       __xi_z                     00000001800212b8     LIBCMT:initializers.obj
 0002:000002c0       __xp_a                     00000001800212c0     LIBCMT:initializers.obj
 0002:000002c8       __acrt_locale_terminator   00000001800212c8     libucrt:locale_initializer.obj
 0002:000002d0       __dcrt_console_output_terminator 00000001800212d0     libucrt:console_output_initializer.obj
 0002:000002d8       __acrt_stdio_terminator    00000001800212d8     libucrt:stdio_initializer.obj
 0002:000002e0       __xp_z                     00000001800212e0     LIBCMT:initializers.obj
 0002:000002e8       __xt_a                     00000001800212e8     LIBCMT:initializers.obj
 0002:000002f0       __xt_z                     00000001800212f0     LIBCMT:initializers.obj
 0002:00000300       __sz_node_exe              0000000180021300     node:node.exe
 0002:00000318       ??_7exception@std@@6B@     0000000180021318     libcpmt:xthrow.obj
 0002:00000328       ??_C@_0BC@EOODALEL@Unknown?5exception@ 0000000180021328     libcpmt:xthrow.obj
 0002:00000348       ??_7bad_alloc@std@@6B@     0000000180021348     libcpmt:xthrow.obj
 0002:00000358       ??_C@_0P@GHFPNOJB@bad?5allocation@ 0000000180021358     libcpmt:xthrow.obj
 0002:00000370       ??_7logic_error@std@@6B@   0000000180021370     libcpmt:xthrow.obj
 0002:00000388       ??_7length_error@std@@6B@  0000000180021388     libcpmt:xthrow.obj
 0002:00000398       _pDefaultRawDllMain        0000000180021398     LIBCMT:dll_dllmain.obj
 0002:00000398       _pRawDllMain               0000000180021398     LIBCMT:dll_dllmain.obj
 0002:000003a0       __xmm@ffffffffffffffffffffffffffffffff 00000001800213a0     LIBCMT:utility.obj
 0002:000003b8       ??_7type_info@@6B@         00000001800213b8     LIBCMT:std_type_info_static.obj
 0002:000003d8       ??_7bad_array_new_length@std@@6B@ 00000001800213d8     LIBCMT:throw_bad_alloc.obj
 0002:000003e8       ?s_negLengthTab@FH4@@3QBCB 00000001800213e8     libvcruntime:risctrnsctrl.obj
 0002:000003f8       ?s_shiftTab@FH4@@3QBEB     00000001800213f8     libvcruntime:risctrnsctrl.obj
 0002:000004a8       _pDestructExceptionObject  00000001800214a8     libvcruntime:ehhelpers.obj
 0002:000004b8       ??_7bad_exception@std@@6B@ 00000001800214b8     libvcruntime:frame.obj
 0002:000004c8       ??_C@_0O@DPKOEFFH@bad?5exception@ 00000001800214c8     libvcruntime:frame.obj
 0002:00000be0       ??_C@_08EHJDFFNH@__based?$CI@ 0000000180021be0     libvcruntime:undname.obj
 0002:00000bf0       ??_C@_07KOLFKCDI@__cdecl@  0000000180021bf0     libvcruntime:undname.obj
 0002:00000bf8       ??_C@_08GHMPAG@__pascal@   0000000180021bf8     libvcruntime:undname.obj
 0002:00000c08       ??_C@_09IFJBGAPI@__stdcall@ 0000000180021c08     libvcruntime:undname.obj
 0002:00000c18       ??_C@_0L@NPHFGOKO@__thiscall@ 0000000180021c18     libvcruntime:undname.obj
 0002:00000c28       ??_C@_0L@JMKHOMEK@__fastcall@ 0000000180021c28     libvcruntime:undname.obj
 0002:00000c38       ??_C@_0N@BCKKPABJ@__vectorcall@ 0000000180021c38     libvcruntime:undname.obj
 0002:00000c48       ??_C@_09HIJEGCPM@__clrcall@ 0000000180021c48     libvcruntime:undname.obj
 0002:00000c54       ??_C@_06GHPCKEAG@__eabi@   0000000180021c54     libvcruntime:undname.obj
 0002:00000c60       ??_C@_09IOPIDJLG@__swift_1@ 0000000180021c60     libvcruntime:undname.obj
 0002:00000c70       ??_C@_09KFNFGKHF@__swift_2@ 0000000180021c70     libvcruntime:undname.obj
 0002:00000c80       ??_C@_07JOMMBBKO@__ptr64@  0000000180021c80     libvcruntime:undname.obj
 0002:00000c88       ??_C@_0L@PILCLIHE@__restrict@ 0000000180021c88     libvcruntime:undname.obj
 0002:00000c98       ??_C@_0M@GFIIJFMG@__unaligned@ 0000000180021c98     libvcruntime:undname.obj
 0002:00000ca8       ??_C@_09DHDLOLLB@restrict?$CI@ 0000000180021ca8     libvcruntime:undname.obj
 0002:00000cb2       ??_C@_00CNPNBAHC@@         0000000180021cb2     libvcruntime:undname.obj
 0002:00000cb4       ??_C@_04NIHEBCM@?5new@     0000000180021cb4     libvcruntime:undname.obj
 0002:00000cc0       ??_C@_07FPCDHGMM@?5delete@ 0000000180021cc0     libvcruntime:undname.obj
 0002:00000cc8       ??_C@_01NEMOKFLO@?$DN@     0000000180021cc8     libvcruntime:undname.obj
 0002:00000ccc       ??_C@_02GPIOPFAK@?$DO?$DO@ 0000000180021ccc     libvcruntime:undname.obj
 0002:00000cd0       ??_C@_02FODMEDOG@?$DM?$DM@ 0000000180021cd0     libvcruntime:undname.obj
 0002:00000cd4       ??_C@_01DCLJPIOD@?$CB@     0000000180021cd4     libvcruntime:undname.obj
 0002:00000cd8       ??_C@_02EGOFBIJA@?$DN?$DN@ 0000000180021cd8     libvcruntime:undname.obj
 0002:00000cdc       ??_C@_02FDNJECIE@?$CB?$DN@ 0000000180021cdc     libvcruntime:undname.obj
 0002:00000ce0       ??_C@_02GPECMEKF@?$FL?$FN@ 0000000180021ce0     libvcruntime:undname.obj
 0002:00000ce8       ??_C@_08LHJFAFGD@operator@ 0000000180021ce8     libvcruntime:undname.obj
 0002:00000cf4       ??_C@_02HBOOOICD@?9?$DO@   0000000180021cf4     libvcruntime:undname.obj
 0002:00000cf8       ??_C@_01NBENCBCI@?$CK@     0000000180021cf8     libvcruntime:undname.obj
 0002:00000cfc       ??_C@_02ECNGHCIF@?$CL?$CL@ 0000000180021cfc     libvcruntime:undname.obj
 0002:00000d00       ??_C@_02BAABKJLB@?9?9@     0000000180021d00     libvcruntime:undname.obj
 0002:00000d04       ??_C@_01JOAMLHOP@?9@       0000000180021d04     libvcruntime:undname.obj
 0002:00000d08       ??_C@_01MIFGBAGJ@?$CL@     0000000180021d08     libvcruntime:undname.obj
 0002:00000d0c       ??_C@_01HNPIGOCE@?$CG@     0000000180021d0c     libvcruntime:undname.obj
 0002:00000d10       ??_C@_03MNHNFDLC@?9?$DO?$CK@ 0000000180021d10     libvcruntime:undname.obj
 0002:00000d14       ??_C@_01KMDKNFGN@?1@       0000000180021d14     libvcruntime:undname.obj
 0002:00000d18       ??_C@_01FGNFDNOH@?$CF@     0000000180021d18     libvcruntime:undname.obj
 0002:00000d1c       ??_C@_01MNNFJEPP@?$DM@     0000000180021d1c     libvcruntime:undname.obj
 0002:00000d20       ??_C@_02EHCHHCKH@?$DM?$DN@ 0000000180021d20     libvcruntime:undname.obj
 0002:00000d24       ??_C@_01PPODPGHN@?$DO@     0000000180021d24     libvcruntime:undname.obj
 0002:00000d28       ??_C@_02EEKDKGMJ@?$DO?$DN@ 0000000180021d28     libvcruntime:undname.obj
 0002:00000d2c       ??_C@_01IHBHIGKO@?0@       0000000180021d2c     libvcruntime:undname.obj
 0002:00000d30       ??_C@_02HCKGKOFO@?$CI?$CJ@ 0000000180021d30     libvcruntime:undname.obj
 0002:00000d34       ??_C@_01PJKLJHI@?$HO@      0000000180021d34     libvcruntime:undname.obj
 0002:00000d38       ??_C@_01JKBOJNNK@?$FO@     0000000180021d38     libvcruntime:undname.obj
 0002:00000d3c       ??_C@_01DNKMNLPK@?$HM@     0000000180021d3c     libvcruntime:undname.obj
 0002:00000d40       ??_C@_02PPKAJPJL@?$CG?$CG@ 0000000180021d40     libvcruntime:undname.obj
 0002:00000d44       ??_C@_02NONPIBCD@?$HM?$HM@ 0000000180021d44     libvcruntime:undname.obj
 0002:00000d48       ??_C@_02FPIMKNGF@?$CK?$DN@ 0000000180021d48     libvcruntime:undname.obj
 0002:00000d4c       ??_C@_02FOEOMHFC@?$CL?$DN@ 0000000180021d4c     libvcruntime:undname.obj
 0002:00000d50       ??_C@_02FKMDLLOA@?9?$DN@   0000000180021d50     libvcruntime:undname.obj
 0002:00000d54       ??_C@_02FJEHGPIO@?1?$DN@   0000000180021d54     libvcruntime:undname.obj
 0002:00000d58       ??_C@_02FENAOKFI@?$CF?$DN@ 0000000180021d58     libvcruntime:undname.obj
 0002:00000d5c       ??_C@_03IKFCCPFF@?$DO?$DO?$DN@ 0000000180021d5c     libvcruntime:undname.obj
 0002:00000d60       ??_C@_03CDNPDDLA@?$DM?$DM?$DN@ 0000000180021d60     libvcruntime:undname.obj
 0002:00000d64       ??_C@_02FGJGFEAB@?$CG?$DN@ 0000000180021d64     libvcruntime:undname.obj
 0002:00000d68       ??_C@_02DHLNPPGH@?$HM?$DN@ 0000000180021d68     libvcruntime:undname.obj
 0002:00000d6c       ??_C@_02MHEGNOJ@?$FO?$DN@  0000000180021d6c     libvcruntime:undname.obj
 0002:00000d70       ??_C@_09IFPLHPGF@?$GAvftable?8@ 0000000180021d70     libvcruntime:undname.obj
 0002:00000d80       ??_C@_09BLBHBJP@?$GAvbtable?8@ 0000000180021d80     libvcruntime:undname.obj
 0002:00000d90       ??_C@_07FEEIOKP@?$GAvcall?8@ 0000000180021d90     libvcruntime:undname.obj
 0002:00000d98       ??_C@_08LLFFHHDJ@?$GAtypeof?8@ 0000000180021d98     libvcruntime:undname.obj
 0002:00000da8       ??_C@_0BF@KDPPACIK@?$GAlocal?5static?5guard?8@ 0000000180021da8     libvcruntime:undname.obj
 0002:00000dc0       ??_C@_08OBABFOLI@?$GAstring?8@ 0000000180021dc0     libvcruntime:undname.obj
 0002:00000dd0       ??_C@_0BD@JDLKDPAB@?$GAvbase?5destructor?8@ 0000000180021dd0     libvcruntime:undname.obj
 0002:00000de8       ??_C@_0BN@DEGPLNFK@?$GAvector?5deleting?5destructor?8@ 0000000180021de8     libvcruntime:undname.obj
 0002:00000e08       ??_C@_0BO@OBMKPJIG@?$GAdefault?5constructor?5closure?8@ 0000000180021e08     libvcruntime:undname.obj
 0002:00000e28       ??_C@_0BN@IMDCHIKM@?$GAscalar?5deleting?5destructor?8@ 0000000180021e28     libvcruntime:undname.obj
 0002:00000e48       ??_C@_0BO@PFGOCPJJ@?$GAvector?5constructor?5iterator?8@ 0000000180021e48     libvcruntime:undname.obj
 0002:00000e68       ??_C@_0BN@LFPFMEDL@?$GAvector?5destructor?5iterator?8@ 0000000180021e68     libvcruntime:undname.obj
 0002:00000e88       ??_C@_0CE@IKBNEHA@?$GAvector?5vbase?5constructor?5itera@ 0000000180021e88     libvcruntime:undname.obj
 0002:00000eb0       ??_C@_0BL@NILFHHPC@?$GAvirtual?5displacement?5map?8@ 0000000180021eb0     libvcruntime:undname.obj
 0002:00000ed0       ??_C@_0CB@JONCMFFK@?$GAeh?5vector?5constructor?5iterator@ 0000000180021ed0     libvcruntime:undname.obj
 0002:00000ef8       ??_C@_0CA@GCEOPDGL@?$GAeh?5vector?5destructor?5iterator?8@ 0000000180021ef8     libvcruntime:undname.obj
 0002:00000f18       ??_C@_0CH@OOJPLCPH@?$GAeh?5vector?5vbase?5constructor?5it@ 0000000180021f18     libvcruntime:undname.obj
 0002:00000f40       ??_C@_0BL@LLKPOHJI@?$GAcopy?5constructor?5closure?8@ 0000000180021f40     libvcruntime:undname.obj
 0002:00000f60       ??_C@_0BA@KBCDOMBN@?$GAudt?5returning?8@ 0000000180021f60     libvcruntime:undname.obj
 0002:00000f70       ??_C@_03KLGMFNMG@?$GAEH@   0000000180021f70     libvcruntime:undname.obj
 0002:00000f74       ??_C@_05KHLCHHI@?$GARTTI@  0000000180021f74     libvcruntime:undname.obj
 0002:00000f80       ??_C@_0BA@KKLDJDLB@?$GAlocal?5vftable?8@ 0000000180021f80     libvcruntime:undname.obj
 0002:00000f90       ??_C@_0CE@IIHCMGGL@?$GAlocal?5vftable?5constructor?5clos@ 0000000180021f90     libvcruntime:undname.obj
 0002:00000fb4       ??_C@_06FHBGPFGH@?5new?$FL?$FN@ 0000000180021fb4     libvcruntime:undname.obj
 0002:00000fc0       ??_C@_09LBNFPBCA@?5delete?$FL?$FN@ 0000000180021fc0     libvcruntime:undname.obj
 0002:00000fd0       ??_C@_0P@HJKNJFNN@?$GAomni?5callsig?8@ 0000000180021fd0     libvcruntime:undname.obj
 0002:00000fe0       ??_C@_0BL@CNOONJFP@?$GAplacement?5delete?5closure?8@ 0000000180021fe0     libvcruntime:undname.obj
 0002:00001000       ??_C@_0BN@CKNJLHMB@?$GAplacement?5delete?$FL?$FN?5closure?8@ 0000000180022000     libvcruntime:undname.obj
 0002:00001020       ??_C@_0CG@CFDHKGGD@?$GAmanaged?5vector?5constructor?5ite@ 0000000180022020     libvcruntime:undname.obj
 0002:00001048       ??_C@_0CF@IMGKMJNO@?$GAmanaged?5vector?5destructor?5iter@ 0000000180022048     libvcruntime:undname.obj
 0002:00001070       ??_C@_0CG@HLDDJMAG@?$GAeh?5vector?5copy?5constructor?5ite@ 0000000180022070     libvcruntime:undname.obj
 0002:00001098       ??_C@_0CM@FCBBDIGB@?$GAeh?5vector?5vbase?5copy?5construct@ 0000000180022098     libvcruntime:undname.obj
 0002:000010c8       ??_C@_0BL@CLIPGLGB@?$GAdynamic?5initializer?5for?5?8@ 00000001800220c8     libvcruntime:undname.obj
 0002:000010e8       ??_C@_0CB@PDBIFEP@?$GAdynamic?5atexit?5destructor?5for?5@ 00000001800220e8     libvcruntime:undname.obj
 0002:00001110       ??_C@_0CD@CGAJBKEJ@?$GAvector?5copy?5constructor?5iterat@ 0000000180022110     libvcruntime:undname.obj
 0002:00001138       ??_C@_0CJ@GJELGAMM@?$GAvector?5vbase?5copy?5constructor?5@ 0000000180022138     libvcruntime:undname.obj
 0002:00001168       ??_C@_0CL@FGIJHLCE@?$GAmanaged?5vector?5copy?5constructo@ 0000000180022168     libvcruntime:undname.obj
 0002:00001198       ??_C@_0BM@PMGGMLDN@?$GAlocal?5static?5thread?5guard?8@ 0000000180022198     libvcruntime:undname.obj
 0002:000011b8       ??_C@_0N@BDNMDMOL@operator?5?$CC?$CC?5@ 00000001800221b8     libvcruntime:undname.obj
 0002:000011c8       ??_C@_0BC@GGEBGALA@operator?5co_await@ 00000001800221c8     libvcruntime:undname.obj
 0002:000011e0       ??_C@_0M@GAAIMMOH@operator?$DM?$DN?$DO@ 00000001800221e0     libvcruntime:undname.obj
 0002:000011f0       ??_C@_0BC@DAFEJGAK@?5Type?5Descriptor?8@ 00000001800221f0     libvcruntime:undname.obj
 0002:00001208       ??_C@_0BM@LDKODKLH@?5Base?5Class?5Descriptor?5at?5?$CI@ 0000000180022208     libvcruntime:undname.obj
 0002:00001228       ??_C@_0BD@LGICGFMM@?5Base?5Class?5Array?8@ 0000000180022228     libvcruntime:undname.obj
 0002:00001240       ??_C@_0BN@MECKDCOJ@?5Class?5Hierarchy?5Descriptor?8@ 0000000180022240     libvcruntime:undname.obj
 0002:00001260       ??_C@_0BK@CFCOFLF@?5Complete?5Object?5Locator?8@ 0000000180022260     libvcruntime:undname.obj
 0002:00001280       ??_C@_0BG@JNJLAMPM@?$GAanonymous?5namespace?8@ 0000000180022280     libvcruntime:undname.obj
 0002:000012b0       ??_C@_1DM@KHCHBNEB@?$AAa?$AAp?$AAi?$AA?9?$AAm?$AAs?$AA?9?$AAw?$AAi?$AAn?$AA?9?$AAc?$AAo?$AAr?$AAe@ 00000001800222b0     libvcruntime:winapi_downlevel.obj
 0002:000012f0       ??_C@_1DK@LPPGFMPP@?$AAa?$AAp?$AAi?$AA?9?$AAm?$AAs?$AA?9?$AAw?$AAi?$AAn?$AA?9?$AAc?$AAo?$AAr?$AAe@ 00000001800222f0     libvcruntime:winapi_downlevel.obj
 0002:00001330       ??_C@_1BC@GDMECMAK@?$AAk?$AAe?$AAr?$AAn?$AAe?$AAl?$AA3?$AA2@ 0000000180022330     libvcruntime:winapi_downlevel.obj
 0002:00001348       ??_C@_1BA@PFFKHIOG@?$AAa?$AAp?$AAi?$AA?9?$AAm?$AAs?$AA?9@ 0000000180022348     libvcruntime:winapi_downlevel.obj
 0002:00001360       ??_C@_08KNHFBNJ@FlsAlloc@  0000000180022360     libvcruntime:winapi_downlevel.obj
 0002:00001378       ??_C@_07PEJMOBNF@FlsFree@  0000000180022378     libvcruntime:winapi_downlevel.obj
 0002:00001388       ??_C@_0M@GDNOONDI@FlsGetValue@ 0000000180022388     libvcruntime:winapi_downlevel.obj
 0002:000013a0       ??_C@_0M@JCPCPOEF@FlsSetValue@ 00000001800223a0     libvcruntime:winapi_downlevel.obj
 0002:000013b8       ??_C@_0BM@HCFOFFN@InitializeCriticalSectionEx@ 00000001800223b8     libvcruntime:winapi_downlevel.obj
 0002:000013e0       ??_C@_0EA@FCLIIPNN@Visual?5C?$CL?$CL?5CRT?3?5Not?5enough?5memo@ 00000001800223e0     libucrt:strerror.obj
 0002:00001420       ??_C@_1FE@LHBLIKM@?$AAA?$AAs?$AAs?$AAe?$AAr?$AAt?$AAi?$AAo?$AAn?$AA?5?$AAf?$AAa?$AAi?$AAl?$AAe@ 0000000180022420     libucrt:assert.obj
 0002:00001480       ??_C@_1EK@MBDPDCGA@?$AAM?$AAi?$AAc?$AAr?$AAo?$AAs?$AAo?$AAf?$AAt?$AA?5?$AAV?$AAi?$AAs?$AAu?$AAa@ 0000000180022480     libucrt:assert.obj
 0002:000014d0       ??_C@_1CE@OJBNHDMO@?$AAA?$AAs?$AAs?$AAe?$AAr?$AAt?$AAi?$AAo?$AAn?$AA?5?$AAf?$AAa?$AAi?$AAl?$AAe@ 00000001800224d0     libucrt:assert.obj
 0002:000014f8       ??_C@_1BE@PHKBBGE@?$AAP?$AAr?$AAo?$AAg?$AAr?$AAa?$AAm?$AA?3?$AA?5@ 00000001800224f8     libucrt:assert.obj
 0002:00001510       ??_C@_1O@HEMHKNDC@?$AAF?$AAi?$AAl?$AAe?$AA?3?$AA?5@ 0000000180022510     libucrt:assert.obj
 0002:00001520       ??_C@_1O@KCAFKHJE@?$AAL?$AAi?$AAn?$AAe?$AA?3?$AA?5@ 0000000180022520     libucrt:assert.obj
 0002:00001530       ??_C@_1BK@PEDCIPMA@?$AAE?$AAx?$AAp?$AAr?$AAe?$AAs?$AAs?$AAi?$AAo?$AAn?$AA?3?$AA?5@ 0000000180022530     libucrt:assert.obj
 0002:00001550       ??_C@_1OA@EGMLFBHJ@?$AAF?$AAo?$AAr?$AA?5?$AAi?$AAn?$AAf?$AAo?$AAr?$AAm?$AAa?$AAt?$AAi?$AAo?$AAn@ 0000000180022550     libucrt:assert.obj
 0002:00001630       ??_C@_1HK@POCJMFGK@?$AA?$CI?$AAP?$AAr?$AAe?$AAs?$AAs?$AA?5?$AAR?$AAe?$AAt?$AAr?$AAy?$AA?5?$AAt?$AAo@ 0000000180022630     libucrt:assert.obj
 0002:000016b0       ??_C@_17LGKOMLJ@?$AA?4?$AA?4?$AA?4@ 00000001800226b0     libucrt:assert.obj
 0002:000016b8       ??_C@_13LBAGMAIH@?$AA?6@   00000001800226b8     libucrt:assert.obj
 0002:000016bc       ??_C@_15IABLJNFO@?$AA?6?$AA?6@ 00000001800226bc     libucrt:assert.obj
 0002:000016c8       ??_C@_1CO@EAEJAADC@?$AA?$DM?$AAp?$AAr?$AAo?$AAg?$AAr?$AAa?$AAm?$AA?5?$AAn?$AAa?$AAm?$AAe?$AA?5?$AAu@ 00000001800226c8     libucrt:assert.obj
 0002:00001870       standard_lookup_table      0000000180022870     libucrt:output.obj
 0002:000018d0       ??_C@_1O@CEDCILHN@?$AA?$CI?$AAn?$AAu?$AAl?$AAl?$AA?$CJ@ 00000001800228d0     libucrt:output.obj
 0002:000018e0       ??_C@_06OJHGLDPL@?$CInull?$CJ@ 00000001800228e0     libucrt:output.obj
 0002:000018f0       __acrt_exception_action_table 00000001800228f0     libucrt:exception_filter.obj
 0002:000019b0       __acrt_signal_action_table_count 00000001800229b0     libucrt:exception_filter.obj
 0002:000019b8       __acrt_signal_action_first_fpe_index 00000001800229b8     libucrt:exception_filter.obj
 0002:000019c0       __acrt_signal_action_fpe_count 00000001800229c0     libucrt:exception_filter.obj
 0002:000019c8       ??_C@_1BI@BGOHAHKC@?$AAm?$AAs?$AAc?$AAo?$AAr?$AAe?$AAe?$AA?4?$AAd?$AAl?$AAl@ 00000001800229c8     libucrt:exit.obj
 0002:000019e0       ??_C@_0P@MIGLKIOC@CorExitProcess@ 00000001800229e0     libucrt:exit.obj
 0002:00001af0       _sys_errlist               0000000180022af0     libucrt:syserr.obj
 0002:00001c50       ??_C@_08INEPGKHH@No?5error@ 0000000180022c50     libucrt:syserr.obj
 0002:00001c60       ??_C@_0BI@BJFCGOHL@Operation?5not?5permitted@ 0000000180022c60     libucrt:syserr.obj
 0002:00001c78       ??_C@_0BK@FMDHKPNF@No?5such?5file?5or?5directory@ 0000000180022c78     libucrt:syserr.obj
 0002:00001c98       ??_C@_0BA@FKIAIBGA@No?5such?5process@ 0000000180022c98     libucrt:syserr.obj
 0002:00001ca8       ??_C@_0BK@FJBOAFDK@Interrupted?5function?5call@ 0000000180022ca8     libucrt:syserr.obj
 0002:00001cc8       ??_C@_0BD@KKNFOBBD@Input?1output?5error@ 0000000180022cc8     libucrt:syserr.obj
 0002:00001ce0       ??_C@_0BK@DPKMCKJ@No?5such?5device?5or?5address@ 0000000180022ce0     libucrt:syserr.obj
 0002:00001d00       ??_C@_0BC@MFFGCDFL@Arg?5list?5too?5long@ 0000000180022d00     libucrt:syserr.obj
 0002:00001d18       ??_C@_0BC@HKPNECK@Exec?5format?5error@ 0000000180022d18     libucrt:syserr.obj
 0002:00001d30       ??_C@_0BE@NFGDDCEF@Bad?5file?5descriptor@ 0000000180022d30     libucrt:syserr.obj
 0002:00001d48       ??_C@_0BD@LOHELEP@No?5child?5processes@ 0000000180022d48     libucrt:syserr.obj
 0002:00001d60       ??_C@_0CB@EPFKGNAK@Resource?5temporarily?5unavailabl@ 0000000180022d60     libucrt:syserr.obj
 0002:00001d88       ??_C@_0BB@IMDKMPFB@Not?5enough?5space@ 0000000180022d88     libucrt:syserr.obj
 0002:00001da0       ??_C@_0BC@HFNFNKAI@Permission?5denied@ 0000000180022da0     libucrt:syserr.obj
 0002:00001db8       ??_C@_0M@LOEHLCJD@Bad?5address@ 0000000180022db8     libucrt:syserr.obj
 0002:00001dc8       ??_C@_0O@NIPGCINC@Unknown?5error@ 0000000180022dc8     libucrt:syserr.obj
 0002:00001dd8       ??_C@_0BA@BIBLIOEK@Resource?5device@ 0000000180022dd8     libucrt:syserr.obj
 0002:00001de8       ??_C@_0M@NAAJNNGH@File?5exists@ 0000000180022de8     libucrt:syserr.obj
 0002:00001df8       ??_C@_0O@OAMDNOCP@Improper?5link@ 0000000180022df8     libucrt:syserr.obj
 0002:00001e08       ??_C@_0P@NLEIANHE@No?5such?5device@ 0000000180022e08     libucrt:syserr.obj
 0002:00001e18       ??_C@_0BA@CJBACOOL@Not?5a?5directory@ 0000000180022e18     libucrt:syserr.obj
 0002:00001e28       ??_C@_0P@NDHGCGKE@Is?5a?5directory@ 0000000180022e28     libucrt:syserr.obj
 0002:00001e38       ??_C@_0BB@HMGGCEBG@Invalid?5argument@ 0000000180022e38     libucrt:syserr.obj
 0002:00001e50       ??_C@_0BO@IIFBODJE@Too?5many?5open?5files?5in?5system@ 0000000180022e50     libucrt:syserr.obj
 0002:00001e70       ??_C@_0BE@INBJMKGG@Too?5many?5open?5files@ 0000000180022e70     libucrt:syserr.obj
 0002:00001e88       ??_C@_0CE@ONOKNLPF@Inappropriate?5I?1O?5control?5opera@ 0000000180022e88     libucrt:syserr.obj
 0002:00001eb0       ??_C@_0P@LFMMIPAE@File?5too?5large@ 0000000180022eb0     libucrt:syserr.obj
 0002:00001ec0       ??_C@_0BI@FEALHKLD@No?5space?5left?5on?5device@ 0000000180022ec0     libucrt:syserr.obj
 0002:00001ed8       ??_C@_0N@FEHLOILP@Invalid?5seek@ 0000000180022ed8     libucrt:syserr.obj
 0002:00001ee8       ??_C@_0BG@DDBFNKBH@Read?9only?5file?5system@ 0000000180022ee8     libucrt:syserr.obj
 0002:00001f00       ??_C@_0P@PKCJJLLM@Too?5many?5links@ 0000000180022f00     libucrt:syserr.obj
 0002:00001f10       ??_C@_0M@LHEPIIOM@Broken?5pipe@ 0000000180022f10     libucrt:syserr.obj
 0002:00001f20       ??_C@_0N@MMJPGLJK@Domain?5error@ 0000000180022f20     libucrt:syserr.obj
 0002:00001f30       ??_C@_0BB@FCBJFCAJ@Result?5too?5large@ 0000000180022f30     libucrt:syserr.obj
 0002:00001f48       ??_C@_0BK@JAEBMJJM@Resource?5deadlock?5avoided@ 0000000180022f48     libucrt:syserr.obj
 0002:00001f68       ??_C@_0BC@BEDIHIDK@Filename?5too?5long@ 0000000180022f68     libucrt:syserr.obj
 0002:00001f80       ??_C@_0BD@CLHBCGPB@No?5locks?5available@ 0000000180022f80     libucrt:syserr.obj
 0002:00001f98       ??_C@_0BJ@IHEHINLI@Function?5not?5implemented@ 0000000180022f98     libucrt:syserr.obj
 0002:00001fb8       ??_C@_0BE@ICMCHPHH@Directory?5not?5empty@ 0000000180022fb8     libucrt:syserr.obj
 0002:00001fd0       ??_C@_0BG@KLEAJEFJ@Illegal?5byte?5sequence@ 0000000180022fd0     libucrt:syserr.obj
 0002:00001fe8       _sys_nerr                  0000000180022fe8     libucrt:syserr.obj
 0002:00001ff0       __lc_time_c                0000000180022ff0     libucrt:nlsdata.obj
 0002:000022b0       ??_C@_03KOEHGMDN@Sun@      00000001800232b0     libucrt:nlsdata.obj
 0002:000022b4       ??_C@_03PDAGKDH@Mon@       00000001800232b4     libucrt:nlsdata.obj
 0002:000022b8       ??_C@_03NAGEINEP@Tue@      00000001800232b8     libucrt:nlsdata.obj
 0002:000022bc       ??_C@_03MHOMLAJA@Wed@      00000001800232bc     libucrt:nlsdata.obj
 0002:000022c0       ??_C@_03IOFIKPDN@Thu@      00000001800232c0     libucrt:nlsdata.obj
 0002:000022c4       ??_C@_03IDIOELNC@Fri@      00000001800232c4     libucrt:nlsdata.obj
 0002:000022c8       ??_C@_03FEFJNEK@Sat@       00000001800232c8     libucrt:nlsdata.obj
 0002:000022cc       ??_C@_06OOPIFAJ@Sunday@    00000001800232cc     libucrt:nlsdata.obj
 0002:000022d4       ??_C@_06JLEDEDGH@Monday@   00000001800232d4     libucrt:nlsdata.obj
 0002:000022e0       ??_C@_07BAAGCFCM@Tuesday@  00000001800232e0     libucrt:nlsdata.obj
 0002:000022e8       ??_C@_09DLIGFAKA@Wednesday@ 00000001800232e8     libucrt:nlsdata.obj
 0002:000022f8       ??_C@_08HACCIKIA@Thursday@ 00000001800232f8     libucrt:nlsdata.obj
 0002:00002304       ??_C@_06JECMNKMI@Friday@   0000000180023304     libucrt:nlsdata.obj
 0002:00002310       ??_C@_08INBOOONO@Saturday@ 0000000180023310     libucrt:nlsdata.obj
 0002:0000231c       ??_C@_03JIHJHPIE@Jan@      000000018002331c     libucrt:nlsdata.obj
 0002:00002320       ??_C@_03HJBDCHOM@Feb@      0000000180023320     libucrt:nlsdata.obj
 0002:00002324       ??_C@_03ODNJBKGA@Mar@      0000000180023324     libucrt:nlsdata.obj
 0002:00002328       ??_C@_03LEOLGMJP@Apr@      0000000180023328     libucrt:nlsdata.obj
 0002:0000232c       ??_C@_03CNMDKL@May@        000000018002332c     libucrt:nlsdata.obj
 0002:00002330       ??_C@_03IDFGHECI@Jun@      0000000180023330     libucrt:nlsdata.obj
 0002:00002334       ??_C@_03LBGABGKK@Jul@      0000000180023334     libucrt:nlsdata.obj
 0002:00002338       ??_C@_03IFJFEIGA@Aug@      0000000180023338     libucrt:nlsdata.obj
 0002:0000233c       ??_C@_03GGCAPAJC@Sep@      000000018002333c     libucrt:nlsdata.obj
 0002:00002340       ??_C@_03BMAOKBAD@Oct@      0000000180023340     libucrt:nlsdata.obj
 0002:00002344       ??_C@_03JPJOFNIA@Nov@      0000000180023344     libucrt:nlsdata.obj
 0002:00002348       ??_C@_03MKABNOCG@Dec@      0000000180023348     libucrt:nlsdata.obj
 0002:00002350       ??_C@_07CGJPFGJA@January@  0000000180023350     libucrt:nlsdata.obj
 0002:00002358       ??_C@_08GNJGEPFN@February@ 0000000180023358     libucrt:nlsdata.obj
 0002:00002364       ??_C@_05HPCKOFNC@March@    0000000180023364     libucrt:nlsdata.obj
 0002:0000236c       ??_C@_05DMJDNLEJ@April@    000000018002336c     libucrt:nlsdata.obj
 0002:00002374       ??_C@_04CNLMGBGM@June@     0000000180023374     libucrt:nlsdata.obj
 0002:0000237c       ??_C@_04MIEPOIFP@July@     000000018002337c     libucrt:nlsdata.obj
 0002:00002384       ??_C@_06LBBHFDDG@August@   0000000180023384     libucrt:nlsdata.obj
 0002:00002390       ??_C@_09BHHEALKD@September@ 0000000180023390     libucrt:nlsdata.obj
 0002:000023a0       ??_C@_07JJNFCEND@October@  00000001800233a0     libucrt:nlsdata.obj
 0002:000023a8       ??_C@_08HCHEGEOA@November@ 00000001800233a8     libucrt:nlsdata.obj
 0002:000023b8       ??_C@_08EDHMEBNP@December@ 00000001800233b8     libucrt:nlsdata.obj
 0002:000023c4       ??_C@_02DEDBPAFC@AM@       00000001800233c4     libucrt:nlsdata.obj
 0002:000023c8       ??_C@_02CJNFDJBF@PM@       00000001800233c8     libucrt:nlsdata.obj
 0002:000023d0       ??_C@_08BPBNCDIB@MM?1dd?1yy@ 00000001800233d0     libucrt:nlsdata.obj
 0002:000023e0       ??_C@_0BE@CKGJFCPC@dddd?0?5MMMM?5dd?0?5yyyy@ 00000001800233e0     libucrt:nlsdata.obj
 0002:000023f8       ??_C@_08JCCMCCIL@HH?3mm?3ss@ 00000001800233f8     libucrt:nlsdata.obj
 0002:00002408       ??_C@_17MBGCMIPB@?$AAS?$AAu?$AAn@ 0000000180023408     libucrt:nlsdata.obj
 0002:00002410       ??_C@_17KBOMKBF@?$AAM?$AAo?$AAn@ 0000000180023410     libucrt:nlsdata.obj
 0002:00002418       ??_C@_17BMKGEGOJ@?$AAT?$AAu?$AAe@ 0000000180023418     libucrt:nlsdata.obj
 0002:00002420       ??_C@_17CJEDCEPE@?$AAW?$AAe?$AAd@ 0000000180023420     libucrt:nlsdata.obj
 0002:00002428       ??_C@_17PDPHAADD@?$AAT?$AAh?$AAu@ 0000000180023428     libucrt:nlsdata.obj
 0002:00002430       ??_C@_17HFOLPPLP@?$AAF?$AAr?$AAi@ 0000000180023430     libucrt:nlsdata.obj
 0002:00002438       ??_C@_17GGIBDPIH@?$AAS?$AAa?$AAt@ 0000000180023438     libucrt:nlsdata.obj
 0002:00002440       ??_C@_1O@IHNHDHPB@?$AAS?$AAu?$AAn?$AAd?$AAa?$AAy@ 0000000180023440     libucrt:nlsdata.obj
 0002:00002450       ??_C@_1O@MMNBFLIA@?$AAM?$AAo?$AAn?$AAd?$AAa?$AAy@ 0000000180023450     libucrt:nlsdata.obj
 0002:00002460       ??_C@_1BA@ENFBFFEK@?$AAT?$AAu?$AAe?$AAs?$AAd?$AAa?$AAy@ 0000000180023460     libucrt:nlsdata.obj
 0002:00002470       ??_C@_1BE@EBOGMDOH@?$AAW?$AAe?$AAd?$AAn?$AAe?$AAs?$AAd?$AAa?$AAy@ 0000000180023470     libucrt:nlsdata.obj
 0002:00002488       ??_C@_1BC@HHMNLIHE@?$AAT?$AAh?$AAu?$AAr?$AAs?$AAd?$AAa?$AAy@ 0000000180023488     libucrt:nlsdata.obj
 0002:000024a0       ??_C@_1O@PDICJHAG@?$AAF?$AAr?$AAi?$AAd?$AAa?$AAy@ 00000001800234a0     libucrt:nlsdata.obj
 0002:000024b0       ??_C@_1BC@ENMNNPAJ@?$AAS?$AAa?$AAt?$AAu?$AAr?$AAd?$AAa?$AAy@ 00000001800234b0     libucrt:nlsdata.obj
 0002:000024c8       ??_C@_17DKNBKCHM@?$AAJ?$AAa?$AAn@ 00000001800234c8     libucrt:nlsdata.obj
 0002:000024d0       ??_C@_17LMDJEKJN@?$AAF?$AAe?$AAb@ 00000001800234d0     libucrt:nlsdata.obj
 0002:000024d8       ??_C@_17CKNLEDEC@?$AAM?$AAa?$AAr@ 00000001800234d8     libucrt:nlsdata.obj
 0002:000024e0       ??_C@_17LFPOIHDD@?$AAA?$AAp?$AAr@ 00000001800234e0     libucrt:nlsdata.obj
 0002:000024e8       ??_C@_17PNNKMEED@?$AAM?$AAa?$AAy@ 00000001800234e8     libucrt:nlsdata.obj
 0002:000024f0       ??_C@_17KCJGOCPB@?$AAJ?$AAu?$AAn@ 00000001800234f0     libucrt:nlsdata.obj
 0002:000024f8       ??_C@_17IJPCKHK@?$AAJ?$AAu?$AAl@ 00000001800234f8     libucrt:nlsdata.obj
 0002:00002500       ??_C@_17ICPELBCN@?$AAA?$AAu?$AAg@ 0000000180023500     libucrt:nlsdata.obj
 0002:00002508       ??_C@_17HCHCOKMG@?$AAS?$AAe?$AAp@ 0000000180023508     libucrt:nlsdata.obj
 0002:00002510       ??_C@_17FNLKOI@?$AAO?$AAc?$AAt@ 0000000180023510     libucrt:nlsdata.obj
 0002:00002518       ??_C@_17BBDMLCIG@?$AAN?$AAo?$AAv@ 0000000180023518     libucrt:nlsdata.obj
 0002:00002520       ??_C@_17EGKACKIF@?$AAD?$AAe?$AAc@ 0000000180023520     libucrt:nlsdata.obj
 0002:00002528       ??_C@_1BA@EFMEIEBA@?$AAJ?$AAa?$AAn?$AAu?$AAa?$AAr?$AAy@ 0000000180023528     libucrt:nlsdata.obj
 0002:00002538       ??_C@_1BC@JGDDFFAM@?$AAF?$AAe?$AAb?$AAr?$AAu?$AAa?$AAr?$AAy@ 0000000180023538     libucrt:nlsdata.obj
 0002:00002550       ??_C@_1M@IKEENEDF@?$AAM?$AAa?$AAr?$AAc?$AAh@ 0000000180023550     libucrt:nlsdata.obj
 0002:00002560       ??_C@_1M@GJNLMHFD@?$AAA?$AAp?$AAr?$AAi?$AAl@ 0000000180023560     libucrt:nlsdata.obj
 0002:00002570       ??_C@_19EPFLPGAP@?$AAJ?$AAu?$AAn?$AAe@ 0000000180023570     libucrt:nlsdata.obj
 0002:00002580       ??_C@_19BIFMLPCD@?$AAJ?$AAu?$AAl?$AAy@ 0000000180023580     libucrt:nlsdata.obj
 0002:00002590       ??_C@_1O@PAHLKOAC@?$AAA?$AAu?$AAg?$AAu?$AAs?$AAt@ 0000000180023590     libucrt:nlsdata.obj
 0002:000025a0       ??_C@_1BE@DKAAMBJL@?$AAS?$AAe?$AAp?$AAt?$AAe?$AAm?$AAb?$AAe?$AAr@ 00000001800235a0     libucrt:nlsdata.obj
 0002:000025b8       ??_C@_1BA@EPANDLNG@?$AAO?$AAc?$AAt?$AAo?$AAb?$AAe?$AAr@ 00000001800235b8     libucrt:nlsdata.obj
 0002:000025c8       ??_C@_1BC@BGLIFPF@?$AAN?$AAo?$AAv?$AAe?$AAm?$AAb?$AAe?$AAr@ 00000001800235c8     libucrt:nlsdata.obj
 0002:000025e0       ??_C@_1BC@FEMKIFH@?$AAD?$AAe?$AAc?$AAe?$AAm?$AAb?$AAe?$AAr@ 00000001800235e0     libucrt:nlsdata.obj
 0002:000025f4       ??_C@_15ODEHAHHF@?$AAA?$AAM@ 00000001800235f4     libucrt:nlsdata.obj
 0002:000025fc       ??_C@_15CLMNNGEL@?$AAP?$AAM@ 00000001800235fc     libucrt:nlsdata.obj
 0002:00002608       ??_C@_1BC@IEBCMHCM@?$AAM?$AAM?$AA?1?$AAd?$AAd?$AA?1?$AAy?$AAy@ 0000000180023608     libucrt:nlsdata.obj
 0002:00002620       ??_C@_1CI@KNAKOEBC@?$AAd?$AAd?$AAd?$AAd?$AA?0?$AA?5?$AAM?$AAM?$AAM?$AAM?$AA?5?$AAd?$AAd?$AA?0?$AA?5@ 0000000180023620     libucrt:nlsdata.obj
 0002:00002648       ??_C@_1BC@GDGBMEMK@?$AAH?$AAH?$AA?3?$AAm?$AAm?$AA?3?$AAs?$AAs@ 0000000180023648     libucrt:nlsdata.obj
 0002:00002660       ??_C@_1M@BMHNFIME@?$AAe?$AAn?$AA?9?$AAU?$AAS@ 0000000180023660     libucrt:nlsdata.obj
 0002:00002710       ??_C@_1EA@JGEFHKEI@?$AAa?$AAp?$AAi?$AA?9?$AAm?$AAs?$AA?9?$AAw?$AAi?$AAn?$AA?9?$AAc?$AAo?$AAr?$AAe@ 0000000180023710     libucrt:winapi_thunks.obj
 0002:00002750       ??_C@_1DI@IJCEHOCB@?$AAa?$AAp?$AAi?$AA?9?$AAm?$AAs?$AA?9?$AAw?$AAi?$AAn?$AA?9?$AAc?$AAo?$AAr?$AAe@ 0000000180023750     libucrt:winapi_thunks.obj
 0002:00002790       ??_C@_1EI@MPIAOHOC@?$AAa?$AAp?$AAi?$AA?9?$AAm?$AAs?$AA?9?$AAw?$AAi?$AAn?$AA?9?$AAc?$AAo?$AAr?$AAe@ 0000000180023790     libucrt:winapi_thunks.obj
 0002:000027e0       ??_C@_1FK@FPHCKFIE@?$AAa?$AAp?$AAi?$AA?9?$AAm?$AAs?$AA?9?$AAw?$AAi?$AAn?$AA?9?$AAc?$AAo?$AAr?$AAe@ 00000001800237e0     libucrt:winapi_thunks.obj
 0002:00002840       ??_C@_1EM@DILCGIIO@?$AAa?$AAp?$AAi?$AA?9?$AAm?$AAs?$AA?9?$AAw?$AAi?$AAn?$AA?9?$AAc?$AAo?$AAr?$AAe@ 0000000180023840     libucrt:winapi_thunks.obj
 0002:00002890       ??_C@_1DM@LNCGDDPN@?$AAa?$AAp?$AAi?$AA?9?$AAm?$AAs?$AA?9?$AAw?$AAi?$AAn?$AA?9?$AAc?$AAo?$AAr?$AAe@ 0000000180023890     libucrt:winapi_thunks.obj
 0002:000028d0       ??_C@_1DO@FPAPJEMD@?$AAa?$AAp?$AAi?$AA?9?$AAm?$AAs?$AA?9?$AAw?$AAi?$AAn?$AA?9?$AAc?$AAo?$AAr?$AAe@ 00000001800238d0     libucrt:winapi_thunks.obj
 0002:00002910       ??_C@_1DK@NDHNAHIO@?$AAa?$AAp?$AAi?$AA?9?$AAm?$AAs?$AA?9?$AAw?$AAi?$AAn?$AA?9?$AAc?$AAo?$AAr?$AAe@ 0000000180023910     libucrt:winapi_thunks.obj
 0002:00002950       ??_C@_1DM@KGHDGBCM@?$AAa?$AAp?$AAi?$AA?9?$AAm?$AAs?$AA?9?$AAw?$AAi?$AAn?$AA?9?$AAc?$AAo?$AAr?$AAe@ 0000000180023950     libucrt:winapi_thunks.obj
 0002:00002990       ??_C@_1EO@IJIOEFOH@?$AAa?$AAp?$AAi?$AA?9?$AAm?$AAs?$AA?9?$AAw?$AAi?$AAn?$AA?9?$AAr?$AAt?$AAc?$AAo@ 0000000180023990     libucrt:winapi_thunks.obj
 0002:000029e0       ??_C@_1FG@HHGEKANL@?$AAa?$AAp?$AAi?$AA?9?$AAm?$AAs?$AA?9?$AAw?$AAi?$AAn?$AA?9?$AAs?$AAe?$AAc?$AAu@ 00000001800239e0     libucrt:winapi_thunks.obj
 0002:00002a40       ??_C@_1EG@DBIOJECG@?$AAe?$AAx?$AAt?$AA?9?$AAm?$AAs?$AA?9?$AAw?$AAi?$AAn?$AA?9?$AAn?$AAt?$AAu?$AAs@ 0000000180023a40     libucrt:winapi_thunks.obj
 0002:00002a90       ??_C@_1EO@FIHMJCLF@?$AAe?$AAx?$AAt?$AA?9?$AAm?$AAs?$AA?9?$AAw?$AAi?$AAn?$AA?9?$AAn?$AAt?$AAu?$AAs@ 0000000180023a90     libucrt:winapi_thunks.obj
 0002:00002ae0       ??_C@_1BC@DNHGCMLG@?$AAa?$AAd?$AAv?$AAa?$AAp?$AAi?$AA3?$AA2@ 0000000180023ae0     libucrt:winapi_thunks.obj
 0002:00002af8       ??_C@_1M@OAIMIKLP@?$AAn?$AAt?$AAd?$AAl?$AAl@ 0000000180023af8     libucrt:winapi_thunks.obj
 0002:00002b10       ??_C@_1EG@DPGNFKGC@?$AAa?$AAp?$AAi?$AA?9?$AAm?$AAs?$AA?9?$AAw?$AAi?$AAn?$AA?9?$AAa?$AAp?$AAp?$AAm@ 0000000180023b10     libucrt:winapi_thunks.obj
 0002:00002b58       ??_C@_1O@BCCLBEOE@?$AAu?$AAs?$AAe?$AAr?$AA3?$AA2@ 0000000180023b58     libucrt:winapi_thunks.obj
 0002:00002b68       ??_C@_1BA@IAIFMGEF@?$AAe?$AAx?$AAt?$AA?9?$AAm?$AAs?$AA?9@ 0000000180023b68     libucrt:winapi_thunks.obj
 0002:00002b80       ??_C@_0BA@FHFNEAED@AreFileApisANSI@ 0000000180023b80     libucrt:winapi_thunks.obj
 0002:00002bb8       ??_C@_0BA@HNOPNCHB@GetActiveWindow@ 0000000180023bb8     libucrt:winapi_thunks.obj
 0002:00002bd0       ??_C@_0BD@HHGDFDBJ@GetLastActivePopup@ 0000000180023bd0     libucrt:winapi_thunks.obj
 0002:00002bf0       ??_C@_0BI@DFKBFLJE@GetProcessWindowStation@ 0000000180023bf0     libucrt:winapi_thunks.obj
 0002:00002c10       ??_C@_0BK@DEKFELLI@GetUserObjectInformationW@ 0000000180023c10     libucrt:winapi_thunks.obj
 0002:00002c40       ??_C@_0O@KKBNKAPF@LCMapStringEx@ 0000000180023c40     libucrt:winapi_thunks.obj
 0002:00002c58       ??_C@_0BB@HBDEELFH@LocaleNameToLCID@ 0000000180023c58     libucrt:winapi_thunks.obj
 0002:00002c78       ??_C@_0M@CHKKJDAI@MessageBoxA@ 0000000180023c78     libucrt:winapi_thunks.obj
 0002:00002c90       ??_C@_0M@DLDCCGNP@MessageBoxW@ 0000000180023c90     libucrt:winapi_thunks.obj
 0002:00002ca0       ??_C@_0CF@OJOFEIGO@AppPolicyGetProcessTerminationM@ 0000000180023ca0     libucrt:winapi_thunks.obj
 0002:00002cd0       ??_C@_0CE@OICFMIKE@AppPolicyGetShowDeveloperDiagno@ 0000000180023cd0     libucrt:winapi_thunks.obj
 0002:00002cf8       ??_C@_0BL@ODDJNEDA@AppPolicyGetWindowingModel@ 0000000180023cf8     libucrt:winapi_thunks.obj
 0002:00002da0       ??_C@_03OEIAHPBN@INF@      0000000180023da0     libucrt:cvt.obj
 0002:00002da4       ??_C@_03OJHLLCGB@inf@      0000000180023da4     libucrt:cvt.obj
 0002:00002da8       ??_C@_03LKNCIKJB@NAN@      0000000180023da8     libucrt:cvt.obj
 0002:00002dac       ??_C@_03LHCJEHON@nan@      0000000180023dac     libucrt:cvt.obj
 0002:00002db0       ??_C@_09OFJJIMPC@NAN?$CISNAN?$CJ@ 0000000180023db0     libucrt:cvt.obj
 0002:00002dc0       ??_C@_09IPFBKMDL@nan?$CIsnan?$CJ@ 0000000180023dc0     libucrt:cvt.obj
 0002:00002dd0       ??_C@_08IKHNHAJ@NAN?$CIIND?$CJ@ 0000000180023dd0     libucrt:cvt.obj
 0002:00002de0       ??_C@_08OFCDMILK@nan?$CIind?$CJ@ 0000000180023de0     libucrt:cvt.obj
 0002:00002dec       ??_C@_05KLBDPFGC@e?$CL000@ 0000000180023dec     libucrt:cvt.obj
 0002:00002e18       ??_C@_1M@HPNHIDJI@?$AAj?$AAa?$AA?9?$AAJ?$AAP@ 0000000180023e18     libucrt:mbctype.obj
 0002:00002e28       ??_C@_1M@BIBDDEMK@?$AAz?$AAh?$AA?9?$AAC?$AAN@ 0000000180023e28     libucrt:mbctype.obj
 0002:00002e38       ??_C@_1M@JLOOOEGK@?$AAk?$AAo?$AA?9?$AAK?$AAR@ 0000000180023e38     libucrt:mbctype.obj
 0002:00002e48       ??_C@_1M@CLNBBOPM@?$AAz?$AAh?$AA?9?$AAT?$AAW@ 0000000180023e48     libucrt:mbctype.obj
 0002:00002e60       __newctype                 0000000180023e60     libucrt:ctype.obj
 0002:00003160       __newclmap                 0000000180024160     libucrt:ctype.obj
 0002:000032e0       __newcumap                 00000001800242e0     libucrt:ctype.obj
 0002:00003460       _wctype                    0000000180024460     libucrt:ctype.obj
 0002:00003664       ??_C@_15PJPFLCCM@?$AAu?$AAk@ 0000000180024664     libucrt:get_qualified_locale.obj
 0002:000044b0       ??_C@_15EMKDOKLE@?$AAa?$AAr@ 00000001800254b0     libucrt:lcidtoname_downlevel.obj
 0002:000044b8       ??_C@_15KNPADPLH@?$AAb?$AAg@ 00000001800254b8     libucrt:lcidtoname_downlevel.obj
 0002:000044c0       ??_C@_15EDMHLDMO@?$AAc?$AAa@ 00000001800254c0     libucrt:lcidtoname_downlevel.obj
 0002:000044c8       ??_C@_1O@BPEAJADD@?$AAz?$AAh?$AA?9?$AAC?$AAH?$AAS@ 00000001800254c8     libucrt:lcidtoname_downlevel.obj
 0002:000044d8       ??_C@_15LJNHCMNK@?$AAc?$AAs@ 00000001800254d8     libucrt:lcidtoname_downlevel.obj
 0002:000044e0       ??_C@_15FOMCIDHG@?$AAd?$AAa@ 00000001800254e0     libucrt:lcidtoname_downlevel.obj
 0002:000044e8       ??_C@_15NBKABECB@?$AAd?$AAe@ 00000001800254e8     libucrt:lcidtoname_downlevel.obj
 0002:000044f0       ??_C@_15GHPEIIAO@?$AAe?$AAl@ 00000001800254f0     libucrt:lcidtoname_downlevel.obj
 0002:000044f8       ??_C@_15MNPNEAIF@?$AAe?$AAn@ 00000001800254f8     libucrt:lcidtoname_downlevel.obj
 0002:00004500       ??_C@_15GPIOMPMH@?$AAe?$AAs@ 0000000180025500     libucrt:lcidtoname_downlevel.obj
 0002:00004508       ??_C@_15NGLOAKJC@?$AAf?$AAi@ 0000000180025508     libucrt:lcidtoname_downlevel.obj
 0002:00004510       ??_C@_15FBKGNKAM@?$AAf?$AAr@ 0000000180025510     libucrt:lcidtoname_downlevel.obj
 0002:00004518       ??_C@_15KGGCNEFK@?$AAh?$AAe@ 0000000180025518     libucrt:lcidtoname_downlevel.obj
 0002:00004520       ??_C@_15PGHLIDMF@?$AAh?$AAu@ 0000000180025520     libucrt:lcidtoname_downlevel.obj
 0002:00004528       ??_C@_15BIEMAPLM@?$AAi?$AAs@ 0000000180025528     libucrt:lcidtoname_downlevel.obj
 0002:00004530       ??_C@_15IFJLDHAF@?$AAi?$AAt@ 0000000180025530     libucrt:lcidtoname_downlevel.obj
 0002:00004538       ??_C@_15GEMIOCAG@?$AAj?$AAa@ 0000000180025538     libucrt:lcidtoname_downlevel.obj
 0002:00004540       ??_C@_15EPELEGJA@?$AAk?$AAo@ 0000000180025540     libucrt:lcidtoname_downlevel.obj
 0002:00004548       ??_C@_15NDDHIMN@?$AAn?$AAl@ 0000000180025548     libucrt:lcidtoname_downlevel.obj
 0002:00004550       ??_C@_15BPIGNHCD@?$AAn?$AAo@ 0000000180025550     libucrt:lcidtoname_downlevel.obj
 0002:00004558       ??_C@_15DEOPBLCG@?$AAp?$AAl@ 0000000180025558     libucrt:lcidtoname_downlevel.obj
 0002:00004560       ??_C@_15KBECGEFG@?$AAp?$AAt@ 0000000180025560     libucrt:lcidtoname_downlevel.obj
 0002:00004568       ??_C@_15GLJCBFMD@?$AAr?$AAo@ 0000000180025568     libucrt:lcidtoname_downlevel.obj
 0002:00004570       ??_C@_15FEDGKCDI@?$AAr?$AAu@ 0000000180025570     libucrt:lcidtoname_downlevel.obj
 0002:00004578       ??_C@_15GLKMLLHM@?$AAh?$AAr@ 0000000180025578     libucrt:lcidtoname_downlevel.obj
 0002:00004580       ??_C@_15CPKMFBDB@?$AAs?$AAk@ 0000000180025580     libucrt:lcidtoname_downlevel.obj
 0002:00004588       ??_C@_15BAAIOGMK@?$AAs?$AAq@ 0000000180025588     libucrt:lcidtoname_downlevel.obj
 0002:00004590       ??_C@_15INNPNOHD@?$AAs?$AAv@ 0000000180025590     libucrt:lcidtoname_downlevel.obj
 0002:00004598       ??_C@_15CABMMOGH@?$AAt?$AAh@ 0000000180025598     libucrt:lcidtoname_downlevel.obj
 0002:000045a0       ??_C@_15BPLIHJJM@?$AAt?$AAr@ 00000001800255a0     libucrt:lcidtoname_downlevel.obj
 0002:000045a8       ??_C@_15NEOEKKDJ@?$AAu?$AAr@ 00000001800255a8     libucrt:lcidtoname_downlevel.obj
 0002:000045b0       ??_C@_15NFICGAJK@?$AAi?$AAd@ 00000001800255b0     libucrt:lcidtoname_downlevel.obj
 0002:000045b8       ??_C@_15HPJPHDM@?$AAb?$AAe@ 00000001800255b8     libucrt:lcidtoname_downlevel.obj
 0002:000045c0       ??_C@_15LCHLGJII@?$AAs?$AAl@ 00000001800255c0     libucrt:lcidtoname_downlevel.obj
 0002:000045c8       ??_C@_15PCFJPHHO@?$AAe?$AAt@ 00000001800255c8     libucrt:lcidtoname_downlevel.obj
 0002:000045d0       ??_C@_15HPFPGODN@?$AAl?$AAv@ 00000001800255d0     libucrt:lcidtoname_downlevel.obj
 0002:000045d8       ??_C@_15NFFGKGLG@?$AAl?$AAt@ 00000001800255d8     libucrt:lcidtoname_downlevel.obj
 0002:000045e0       ??_C@_15BDAKCCHN@?$AAf?$AAa@ 00000001800255e0     libucrt:lcidtoname_downlevel.obj
 0002:000045e8       ??_C@_15NFGIAIAJ@?$AAv?$AAi@ 00000001800255e8     libucrt:lcidtoname_downlevel.obj
 0002:000045f0       ??_C@_15LMKNDMHN@?$AAh?$AAy@ 00000001800255f0     libucrt:lcidtoname_downlevel.obj
 0002:000045f8       ??_C@_15IJBHMCFL@?$AAa?$AAz@ 00000001800255f8     libucrt:lcidtoname_downlevel.obj
 0002:00004600       ??_C@_15EKOFJABL@?$AAe?$AAu@ 0000000180025600     libucrt:lcidtoname_downlevel.obj
 0002:00004608       ??_C@_15BGHADCNK@?$AAm?$AAk@ 0000000180025608     libucrt:lcidtoname_downlevel.obj
 0002:00004610       ??_C@_15JDNICKHM@?$AAa?$AAf@ 0000000180025610     libucrt:lcidtoname_downlevel.obj
 0002:00004618       ??_C@_15KPJEDBKD@?$AAk?$AAa@ 0000000180025618     libucrt:lcidtoname_downlevel.obj
 0002:00004620       ??_C@_15PDNFFFEO@?$AAf?$AAo@ 0000000180025620     libucrt:lcidtoname_downlevel.obj
 0002:00004628       ??_C@_15OMLEGLOC@?$AAh?$AAi@ 0000000180025628     libucrt:lcidtoname_downlevel.obj
 0002:00004630       ??_C@_15IDNNENKK@?$AAm?$AAs@ 0000000180025630     libucrt:lcidtoname_downlevel.obj
 0002:00004638       ??_C@_15MACJNBMH@?$AAk?$AAk@ 0000000180025638     libucrt:lcidtoname_downlevel.obj
 0002:00004640       ??_C@_15DKDJEOND@?$AAk?$AAy@ 0000000180025640     libucrt:lcidtoname_downlevel.obj
 0002:00004648       ??_C@_15DFGDLJBG@?$AAs?$AAw@ 0000000180025648     libucrt:lcidtoname_downlevel.obj
 0002:00004650       ??_C@_15BBFAICNG@?$AAu?$AAz@ 0000000180025650     libucrt:lcidtoname_downlevel.obj
 0002:00004658       ??_C@_15DKNDCGEA@?$AAt?$AAt@ 0000000180025658     libucrt:lcidtoname_downlevel.obj
 0002:00004660       ??_C@_15MGIFMDPL@?$AAp?$AAa@ 0000000180025660     libucrt:lcidtoname_downlevel.obj
 0002:00004668       ??_C@_15HCNDBBA@?$AAg?$AAu@ 0000000180025668     libucrt:lcidtoname_downlevel.obj
 0002:00004670       ??_C@_15FNBEIBON@?$AAt?$AAa@ 0000000180025670     libucrt:lcidtoname_downlevel.obj
 0002:00004678       ??_C@_15NCHGBGLK@?$AAt?$AAe@ 0000000180025678     libucrt:lcidtoname_downlevel.obj
 0002:00004680       ??_C@_15PHPHCBPF@?$AAk?$AAn@ 0000000180025680     libucrt:lcidtoname_downlevel.obj
 0002:00004688       ??_C@_15DLGBCKMP@?$AAm?$AAr@ 0000000180025688     libucrt:lcidtoname_downlevel.obj
 0002:00004690       ??_C@_15EABBLBFF@?$AAs?$AAa@ 0000000180025690     libucrt:lcidtoname_downlevel.obj
 0002:00004698       ??_C@_15CBKOMCOI@?$AAm?$AAn@ 0000000180025698     libucrt:lcidtoname_downlevel.obj
 0002:000046a0       ??_C@_15CKDMCJAF@?$AAg?$AAl@ 00000001800256a0     libucrt:lcidtoname_downlevel.obj
 0002:000046a8       ??_C@_17CNJFBPG@?$AAk?$AAo?$AAk@ 00000001800256a8     libucrt:lcidtoname_downlevel.obj
 0002:000046b0       ??_C@_17FFBJICPL@?$AAs?$AAy?$AAr@ 00000001800256b0     libucrt:lcidtoname_downlevel.obj
 0002:000046b8       ??_C@_17KPNDCPAF@?$AAd?$AAi?$AAv@ 00000001800256b8     libucrt:lcidtoname_downlevel.obj
 0002:000046c0       ??_C@_11LOCGONAA@@         00000001800256c0     libucrt:lcidtoname_downlevel.obj
 0002:000046c8       ??_C@_1M@OKAHONE@?$AAa?$AAr?$AA?9?$AAS?$AAA@ 00000001800256c8     libucrt:lcidtoname_downlevel.obj
 0002:000046d8       ??_C@_1M@FFFIGIGK@?$AAb?$AAg?$AA?9?$AAB?$AAG@ 00000001800256d8     libucrt:lcidtoname_downlevel.obj
 0002:000046e8       ??_C@_1M@BJNKEDC@?$AAc?$AAa?$AA?9?$AAE?$AAS@ 00000001800256e8     libucrt:lcidtoname_downlevel.obj
 0002:000046f8       ??_C@_1M@IJJHFJHA@?$AAc?$AAs?$AA?9?$AAC?$AAZ@ 00000001800256f8     libucrt:lcidtoname_downlevel.obj
 0002:00004708       ??_C@_1M@CLPEOBGI@?$AAd?$AAa?$AA?9?$AAD?$AAK@ 0000000180025708     libucrt:lcidtoname_downlevel.obj
 0002:00004718       ??_C@_1M@MCMADGCB@?$AAd?$AAe?$AA?9?$AAD?$AAE@ 0000000180025718     libucrt:lcidtoname_downlevel.obj
 0002:00004728       ??_C@_1M@OOCKEMAM@?$AAe?$AAl?$AA?9?$AAG?$AAR@ 0000000180025728     libucrt:lcidtoname_downlevel.obj
 0002:00004738       ??_C@_1M@DDNJFGID@?$AAf?$AAi?$AA?9?$AAF?$AAI@ 0000000180025738     libucrt:lcidtoname_downlevel.obj
 0002:00004748       ??_C@_1M@GLIPPMAC@?$AAf?$AAr?$AA?9?$AAF?$AAR@ 0000000180025748     libucrt:lcidtoname_downlevel.obj
 0002:00004758       ??_C@_1M@GFMCHPE@?$AAh?$AAe?$AA?9?$AAI?$AAL@ 0000000180025758     libucrt:lcidtoname_downlevel.obj
 0002:00004768       ??_C@_1M@MHLPGNKM@?$AAh?$AAu?$AA?9?$AAH?$AAU@ 0000000180025768     libucrt:lcidtoname_downlevel.obj
 0002:00004778       ??_C@_1M@LPDDNNPN@?$AAi?$AAs?$AA?9?$AAI?$AAS@ 0000000180025778     libucrt:lcidtoname_downlevel.obj
 0002:00004788       ??_C@_1M@MADIPODN@?$AAi?$AAt?$AA?9?$AAI?$AAT@ 0000000180025788     libucrt:lcidtoname_downlevel.obj
 0002:00004798       ??_C@_1M@IHBJJGG@?$AAn?$AAl?$AA?9?$AAN?$AAL@ 0000000180025798     libucrt:lcidtoname_downlevel.obj
 0002:000047a8       ??_C@_1M@EANAGDL@?$AAn?$AAb?$AA?9?$AAN?$AAO@ 00000001800257a8     libucrt:lcidtoname_downlevel.obj
 0002:000047b8       ??_C@_1M@NEIEMEGP@?$AAp?$AAl?$AA?9?$AAP?$AAL@ 00000001800257b8     libucrt:lcidtoname_downlevel.obj
 0002:000047c8       ??_C@_1M@BOCFIGEP@?$AAp?$AAt?$AA?9?$AAB?$AAR@ 00000001800257c8     libucrt:lcidtoname_downlevel.obj
 0002:000047d8       ??_C@_1M@IMPFOPBG@?$AAr?$AAo?$AA?9?$AAR?$AAO@ 00000001800257d8     libucrt:lcidtoname_downlevel.obj
 0002:000047e8       ??_C@_1M@IDNNEJMM@?$AAr?$AAu?$AA?9?$AAR?$AAU@ 00000001800257e8     libucrt:lcidtoname_downlevel.obj
 0002:000047f8       ??_C@_1M@LILEEOGM@?$AAh?$AAr?$AA?9?$AAH?$AAR@ 00000001800257f8     libucrt:lcidtoname_downlevel.obj
 0002:00004808       ??_C@_1M@FKIFEHPB@?$AAs?$AAk?$AA?9?$AAS?$AAK@ 0000000180025808     libucrt:lcidtoname_downlevel.obj
 0002:00004818       ??_C@_1M@LJMAMNPJ@?$AAs?$AAq?$AA?9?$AAA?$AAL@ 0000000180025818     libucrt:lcidtoname_downlevel.obj
 0002:00004828       ??_C@_1M@GIAKDKJK@?$AAs?$AAv?$AA?9?$AAS?$AAE@ 0000000180025828     libucrt:lcidtoname_downlevel.obj
 0002:00004838       ??_C@_1M@MKJKIKCL@?$AAt?$AAh?$AA?9?$AAT?$AAH@ 0000000180025838     libucrt:lcidtoname_downlevel.obj
 0002:00004848       ??_C@_1M@MFLCCMPB@?$AAt?$AAr?$AA?9?$AAT?$AAR@ 0000000180025848     libucrt:lcidtoname_downlevel.obj
 0002:00004858       ??_C@_1M@OIJHDKJN@?$AAu?$AAr?$AA?9?$AAP?$AAK@ 0000000180025858     libucrt:lcidtoname_downlevel.obj
 0002:00004868       ??_C@_1M@LHIPCIEK@?$AAi?$AAd?$AA?9?$AAI?$AAD@ 0000000180025868     libucrt:lcidtoname_downlevel.obj
 0002:00004878       ??_C@_1M@MFMOBGI@?$AAu?$AAk?$AA?9?$AAU?$AAA@ 0000000180025878     libucrt:lcidtoname_downlevel.obj
 0002:00004888       ??_C@_1M@OBGLJIPL@?$AAb?$AAe?$AA?9?$AAB?$AAY@ 0000000180025888     libucrt:lcidtoname_downlevel.obj
 0002:00004898       ??_C@_1M@BCFAJEAD@?$AAs?$AAl?$AA?9?$AAS?$AAI@ 0000000180025898     libucrt:lcidtoname_downlevel.obj
 0002:000048a8       ??_C@_1M@FKFFEDDN@?$AAe?$AAt?$AA?9?$AAE?$AAE@ 00000001800258a8     libucrt:lcidtoname_downlevel.obj
 0002:000048b8       ??_C@_1M@KGKKAACI@?$AAl?$AAv?$AA?9?$AAL?$AAV@ 00000001800258b8     libucrt:lcidtoname_downlevel.obj
 0002:000048c8       ??_C@_1M@IFGBIJO@?$AAl?$AAt?$AA?9?$AAL?$AAT@ 00000001800258c8     libucrt:lcidtoname_downlevel.obj
 0002:000048d8       ??_C@_1M@FGEAHEDM@?$AAf?$AAa?$AA?9?$AAI?$AAR@ 00000001800258d8     libucrt:lcidtoname_downlevel.obj
 0002:000048e8       ??_C@_1M@KBMAIBFN@?$AAv?$AAi?$AA?9?$AAV?$AAN@ 00000001800258e8     libucrt:lcidtoname_downlevel.obj
 0002:000048f8       ??_C@_1M@GPCBKDJK@?$AAh?$AAy?$AA?9?$AAA?$AAM@ 00000001800258f8     libucrt:lcidtoname_downlevel.obj
 0002:00004908       ??_C@_1BG@BECMDDJB@?$AAa?$AAz?$AA?9?$AAA?$AAZ?$AA?9?$AAL?$AAa?$AAt?$AAn@ 0000000180025908     libucrt:lcidtoname_downlevel.obj
 0002:00004920       ??_C@_1M@MAOFCAEA@?$AAe?$AAu?$AA?9?$AAE?$AAS@ 0000000180025920     libucrt:lcidtoname_downlevel.obj
 0002:00004930       ??_C@_1M@IGHABKPI@?$AAm?$AAk?$AA?9?$AAM?$AAK@ 0000000180025930     libucrt:lcidtoname_downlevel.obj
 0002:00004940       ??_C@_1M@IAIGNEJG@?$AAt?$AAn?$AA?9?$AAZ?$AAA@ 0000000180025940     libucrt:lcidtoname_downlevel.obj
 0002:00004950       ??_C@_1M@IIJCOJFA@?$AAx?$AAh?$AA?9?$AAZ?$AAA@ 0000000180025950     libucrt:lcidtoname_downlevel.obj
 0002:00004960       ??_C@_1M@LGPJHNJH@?$AAz?$AAu?$AA?9?$AAZ?$AAA@ 0000000180025960     libucrt:lcidtoname_downlevel.obj
 0002:00004970       ??_C@_1M@HOKAOIO@?$AAa?$AAf?$AA?9?$AAZ?$AAA@ 0000000180025970     libucrt:lcidtoname_downlevel.obj
 0002:00004980       ??_C@_1M@DPCLHLIE@?$AAk?$AAa?$AA?9?$AAG?$AAE@ 0000000180025980     libucrt:lcidtoname_downlevel.obj
 0002:00004990       ??_C@_1M@BLKMHJBI@?$AAf?$AAo?$AA?9?$AAF?$AAO@ 0000000180025990     libucrt:lcidtoname_downlevel.obj
 0002:000049a0       ??_C@_1M@LGGJAPPB@?$AAh?$AAi?$AA?9?$AAI?$AAN@ 00000001800259a0     libucrt:lcidtoname_downlevel.obj
 0002:000049b0       ??_C@_1M@FIKPIHFE@?$AAm?$AAt?$AA?9?$AAM?$AAT@ 00000001800259b0     libucrt:lcidtoname_downlevel.obj
 0002:000049c0       ??_C@_1M@HEGGPBFA@?$AAs?$AAe?$AA?9?$AAN?$AAO@ 00000001800259c0     libucrt:lcidtoname_downlevel.obj
 0002:000049d0       ??_C@_1M@EIBJEEPA@?$AAm?$AAs?$AA?9?$AAM?$AAY@ 00000001800259d0     libucrt:lcidtoname_downlevel.obj
 0002:000049e0       ??_C@_1M@FHLBGMPP@?$AAk?$AAk?$AA?9?$AAK?$AAZ@ 00000001800259e0     libucrt:lcidtoname_downlevel.obj
 0002:000049f0       ??_C@_1M@NGJJLCGI@?$AAk?$AAy?$AA?9?$AAK?$AAG@ 00000001800259f0     libucrt:lcidtoname_downlevel.obj
 0002:00004a00       ??_C@_1M@GIENNBFC@?$AAs?$AAw?$AA?9?$AAK?$AAE@ 0000000180025a00     libucrt:lcidtoname_downlevel.obj
 0002:00004a10       ??_C@_1BG@NDGMJIMJ@?$AAu?$AAz?$AA?9?$AAU?$AAZ?$AA?9?$AAL?$AAa?$AAt?$AAn@ 0000000180025a10     libucrt:lcidtoname_downlevel.obj
 0002:00004a28       ??_C@_1M@IDCCIHBC@?$AAt?$AAt?$AA?9?$AAR?$AAU@ 0000000180025a28     libucrt:lcidtoname_downlevel.obj
 0002:00004a38       ??_C@_1M@LOICPMOJ@?$AAb?$AAn?$AA?9?$AAI?$AAN@ 0000000180025a38     libucrt:lcidtoname_downlevel.obj
 0002:00004a48       ??_C@_1M@KPKKNEAH@?$AAp?$AAa?$AA?9?$AAI?$AAN@ 0000000180025a48     libucrt:lcidtoname_downlevel.obj
 0002:00004a58       ??_C@_1M@PJGPPBOG@?$AAg?$AAu?$AA?9?$AAI?$AAN@ 0000000180025a58     libucrt:lcidtoname_downlevel.obj
 0002:00004a68       ??_C@_1M@KMKMOPHI@?$AAt?$AAa?$AA?9?$AAI?$AAN@ 0000000180025a68     libucrt:lcidtoname_downlevel.obj
 0002:00004a78       ??_C@_1M@KFEHEPAC@?$AAt?$AAe?$AA?9?$AAI?$AAN@ 0000000180025a78     libucrt:lcidtoname_downlevel.obj
 0002:00004a88       ??_C@_1M@CDCLMGHI@?$AAk?$AAn?$AA?9?$AAI?$AAN@ 0000000180025a88     libucrt:lcidtoname_downlevel.obj
 0002:00004a98       ??_C@_1M@MIODLDKF@?$AAm?$AAl?$AA?9?$AAI?$AAN@ 0000000180025a98     libucrt:lcidtoname_downlevel.obj
 0002:00004aa8       ??_C@_1M@PBIEACPO@?$AAm?$AAr?$AA?9?$AAI?$AAN@ 0000000180025aa8     libucrt:lcidtoname_downlevel.obj
 0002:00004ab8       ??_C@_1M@NIDEAGPH@?$AAs?$AAa?$AA?9?$AAI?$AAN@ 0000000180025ab8     libucrt:lcidtoname_downlevel.obj
 0002:00004ac8       ??_C@_1M@FHIHCBIO@?$AAm?$AAn?$AA?9?$AAM?$AAN@ 0000000180025ac8     libucrt:lcidtoname_downlevel.obj
 0002:00004ad8       ??_C@_1M@JAIJPENP@?$AAc?$AAy?$AA?9?$AAG?$AAB@ 0000000180025ad8     libucrt:lcidtoname_downlevel.obj
 0002:00004ae8       ??_C@_1M@PHGFBEPN@?$AAg?$AAl?$AA?9?$AAE?$AAS@ 0000000180025ae8     libucrt:lcidtoname_downlevel.obj
 0002:00004af8       ??_C@_1O@KPIPDNCP@?$AAk?$AAo?$AAk?$AA?9?$AAI?$AAN@ 0000000180025af8     libucrt:lcidtoname_downlevel.obj
 0002:00004b08       ??_C@_1O@KNHJLDJA@?$AAs?$AAy?$AAr?$AA?9?$AAS?$AAY@ 0000000180025b08     libucrt:lcidtoname_downlevel.obj
 0002:00004b18       ??_C@_1O@MKEKBLAH@?$AAd?$AAi?$AAv?$AA?9?$AAM?$AAV@ 0000000180025b18     libucrt:lcidtoname_downlevel.obj
 0002:00004b28       ??_C@_1O@OHDCKDDF@?$AAq?$AAu?$AAz?$AA?9?$AAB?$AAO@ 0000000180025b28     libucrt:lcidtoname_downlevel.obj
 0002:00004b38       ??_C@_1M@LEPJNLFD@?$AAn?$AAs?$AA?9?$AAZ?$AAA@ 0000000180025b38     libucrt:lcidtoname_downlevel.obj
 0002:00004b48       ??_C@_1M@OMLEIIJB@?$AAm?$AAi?$AA?9?$AAN?$AAZ@ 0000000180025b48     libucrt:lcidtoname_downlevel.obj
 0002:00004b58       ??_C@_1M@PMPEAILG@?$AAa?$AAr?$AA?9?$AAI?$AAQ@ 0000000180025b58     libucrt:lcidtoname_downlevel.obj
 0002:00004b68       ??_C@_1M@CNKPNOEE@?$AAd?$AAe?$AA?9?$AAC?$AAH@ 0000000180025b68     libucrt:lcidtoname_downlevel.obj
 0002:00004b78       ??_C@_1M@LKMGMLKO@?$AAe?$AAn?$AA?9?$AAG?$AAB@ 0000000180025b78     libucrt:lcidtoname_downlevel.obj
 0002:00004b88       ??_C@_1M@PGKJFFGL@?$AAe?$AAs?$AA?9?$AAM?$AAX@ 0000000180025b88     libucrt:lcidtoname_downlevel.obj
 0002:00004b98       ??_C@_1M@DNNANBDC@?$AAf?$AAr?$AA?9?$AAB?$AAE@ 0000000180025b98     libucrt:lcidtoname_downlevel.obj
 0002:00004ba8       ??_C@_1M@HLGMDFHM@?$AAi?$AAt?$AA?9?$AAC?$AAH@ 0000000180025ba8     libucrt:lcidtoname_downlevel.obj
 0002:00004bb8       ??_C@_1M@CLLBGJH@?$AAn?$AAl?$AA?9?$AAB?$AAE@ 0000000180025bb8     libucrt:lcidtoname_downlevel.obj
 0002:00004bc8       ??_C@_1M@BODBOGLF@?$AAn?$AAn?$AA?9?$AAN?$AAO@ 0000000180025bc8     libucrt:lcidtoname_downlevel.obj
 0002:00004bd8       ??_C@_1M@HFFAHKAD@?$AAp?$AAt?$AA?9?$AAP?$AAT@ 0000000180025bd8     libucrt:lcidtoname_downlevel.obj
 0002:00004be8       ??_C@_1BG@LNOAKHIE@?$AAs?$AAr?$AA?9?$AAS?$AAP?$AA?9?$AAL?$AAa?$AAt?$AAn@ 0000000180025be8     libucrt:lcidtoname_downlevel.obj
 0002:00004c00       ??_C@_1M@HBMHBGAK@?$AAs?$AAv?$AA?9?$AAF?$AAI@ 0000000180025c00     libucrt:lcidtoname_downlevel.obj
 0002:00004c10       ??_C@_1BG@DGCJGJBE@?$AAa?$AAz?$AA?9?$AAA?$AAZ?$AA?9?$AAC?$AAy?$AAr?$AAl@ 0000000180025c10     libucrt:lcidtoname_downlevel.obj
 0002:00004c28       ??_C@_1M@KEJDAAHB@?$AAs?$AAe?$AA?9?$AAS?$AAE@ 0000000180025c28     libucrt:lcidtoname_downlevel.obj
 0002:00004c38       ??_C@_1M@HEIBJJAD@?$AAm?$AAs?$AA?9?$AAB?$AAN@ 0000000180025c38     libucrt:lcidtoname_downlevel.obj
 0002:00004c48       ??_C@_1BG@PBGJMCEM@?$AAu?$AAz?$AA?9?$AAU?$AAZ?$AA?9?$AAC?$AAy?$AAr?$AAl@ 0000000180025c48     libucrt:lcidtoname_downlevel.obj
 0002:00004c60       ??_C@_1O@LAOBCMDF@?$AAq?$AAu?$AAz?$AA?9?$AAE?$AAC@ 0000000180025c60     libucrt:lcidtoname_downlevel.obj
 0002:00004c70       ??_C@_1M@POEEMAIO@?$AAa?$AAr?$AA?9?$AAE?$AAG@ 0000000180025c70     libucrt:lcidtoname_downlevel.obj
 0002:00004c80       ??_C@_1M@EFAKDEDL@?$AAz?$AAh?$AA?9?$AAH?$AAK@ 0000000180025c80     libucrt:lcidtoname_downlevel.obj
 0002:00004c90       ??_C@_1M@HKKIJHGI@?$AAd?$AAe?$AA?9?$AAA?$AAT@ 0000000180025c90     libucrt:lcidtoname_downlevel.obj
 0002:00004ca0       ??_C@_1M@KBFBEHJF@?$AAe?$AAn?$AA?9?$AAA?$AAU@ 0000000180025ca0     libucrt:lcidtoname_downlevel.obj
 0002:00004cb0       ??_C@_1M@MNPLFAAH@?$AAe?$AAs?$AA?9?$AAE?$AAS@ 0000000180025cb0     libucrt:lcidtoname_downlevel.obj
 0002:00004cc0       ??_C@_1M@HJOOJFMA@?$AAf?$AAr?$AA?9?$AAC?$AAA@ 0000000180025cc0     libucrt:lcidtoname_downlevel.obj
 0002:00004cd0       ??_C@_1BG@JPOFPNAB@?$AAs?$AAr?$AA?9?$AAS?$AAP?$AA?9?$AAC?$AAy?$AAr?$AAl@ 0000000180025cd0     libucrt:lcidtoname_downlevel.obj
 0002:00004ce8       ??_C@_1M@LNFOCMOB@?$AAs?$AAe?$AA?9?$AAF?$AAI@ 0000000180025ce8     libucrt:lcidtoname_downlevel.obj
 0002:00004cf8       ??_C@_1O@MGJBOAMB@?$AAq?$AAu?$AAz?$AA?9?$AAP?$AAE@ 0000000180025cf8     libucrt:lcidtoname_downlevel.obj
 0002:00004d08       ??_C@_1M@GJINLBOK@?$AAa?$AAr?$AA?9?$AAL?$AAY@ 0000000180025d08     libucrt:lcidtoname_downlevel.obj
 0002:00004d18       ??_C@_1M@GGMNHJNL@?$AAz?$AAh?$AA?9?$AAS?$AAG@ 0000000180025d18     libucrt:lcidtoname_downlevel.obj
 0002:00004d28       ??_C@_1M@HOIKODND@?$AAd?$AAe?$AA?9?$AAL?$AAU@ 0000000180025d28     libucrt:lcidtoname_downlevel.obj
 0002:00004d38       ??_C@_1M@DDOCCGFG@?$AAe?$AAn?$AA?9?$AAC?$AAA@ 0000000180025d38     libucrt:lcidtoname_downlevel.obj
 0002:00004d48       ??_C@_1M@BNOEMJLF@?$AAe?$AAs?$AA?9?$AAG?$AAT@ 0000000180025d48     libucrt:lcidtoname_downlevel.obj
 0002:00004d58       ??_C@_1M@EOGNKEK@?$AAf?$AAr?$AA?9?$AAC?$AAH@ 0000000180025d58     libucrt:lcidtoname_downlevel.obj
 0002:00004d68       ??_C@_1M@FLIDJFHL@?$AAh?$AAr?$AA?9?$AAB?$AAA@ 0000000180025d68     libucrt:lcidtoname_downlevel.obj
 0002:00004d78       ??_C@_1O@FMCELNAJ@?$AAs?$AAm?$AAj?$AA?9?$AAN?$AAO@ 0000000180025d78     libucrt:lcidtoname_downlevel.obj
 0002:00004d88       ??_C@_1M@JHGLJMGJ@?$AAa?$AAr?$AA?9?$AAD?$AAZ@ 0000000180025d88     libucrt:lcidtoname_downlevel.obj
 0002:00004d98       ??_C@_1M@JKKFDCNP@?$AAz?$AAh?$AA?9?$AAM?$AAO@ 0000000180025d98     libucrt:lcidtoname_downlevel.obj
 0002:00004da8       ??_C@_1M@GEEFALPE@?$AAd?$AAe?$AA?9?$AAL?$AAI@ 0000000180025da8     libucrt:lcidtoname_downlevel.obj
 0002:00004db8       ??_C@_1M@IGEOFBG@?$AAe?$AAn?$AA?9?$AAN?$AAZ@ 0000000180025db8     libucrt:lcidtoname_downlevel.obj
 0002:00004dc8       ??_C@_1M@KDBONEHP@?$AAe?$AAs?$AA?9?$AAC?$AAR@ 0000000180025dc8     libucrt:lcidtoname_downlevel.obj
 0002:00004dd8       ??_C@_1M@FHMDOHNN@?$AAf?$AAr?$AA?9?$AAL?$AAU@ 0000000180025dd8     libucrt:lcidtoname_downlevel.obj
 0002:00004de8       ??_C@_1BG@NFKKMAFG@?$AAb?$AAs?$AA?9?$AAB?$AAA?$AA?9?$AAL?$AAa?$AAt?$AAn@ 0000000180025de8     libucrt:lcidtoname_downlevel.obj
 0002:00004e00       ??_C@_1O@IMNBEMCI@?$AAs?$AAm?$AAj?$AA?9?$AAS?$AAE@ 0000000180025e00     libucrt:lcidtoname_downlevel.obj
 0002:00004e10       ??_C@_1M@DHHMBNDP@?$AAa?$AAr?$AA?9?$AAM?$AAA@ 0000000180025e10     libucrt:lcidtoname_downlevel.obj
 0002:00004e20       ??_C@_1M@BNBLJCGH@?$AAe?$AAn?$AA?9?$AAI?$AAE@ 0000000180025e20     libucrt:lcidtoname_downlevel.obj
 0002:00004e30       ??_C@_1M@GEPAFMDL@?$AAe?$AAs?$AA?9?$AAP?$AAA@ 0000000180025e30     libucrt:lcidtoname_downlevel.obj
 0002:00004e40       ??_C@_1M@OJONDMDL@?$AAf?$AAr?$AA?9?$AAM?$AAC@ 0000000180025e40     libucrt:lcidtoname_downlevel.obj
 0002:00004e50       ??_C@_1BG@OBCNFJB@?$AAs?$AAr?$AA?9?$AAB?$AAA?$AA?9?$AAL?$AAa?$AAt?$AAn@ 0000000180025e50     libucrt:lcidtoname_downlevel.obj
 0002:00004e68       ??_C@_1O@KEMEEGPO@?$AAs?$AAm?$AAa?$AA?9?$AAN?$AAO@ 0000000180025e68     libucrt:lcidtoname_downlevel.obj
 0002:00004e78       ??_C@_1M@ELMGFODK@?$AAa?$AAr?$AA?9?$AAT?$AAN@ 0000000180025e78     libucrt:lcidtoname_downlevel.obj
 0002:00004e88       ??_C@_1M@BHDLHFAF@?$AAe?$AAn?$AA?9?$AAZ?$AAA@ 0000000180025e88     libucrt:lcidtoname_downlevel.obj
 0002:00004e98       ??_C@_1M@BMGIGLIF@?$AAe?$AAs?$AA?9?$AAD?$AAO@ 0000000180025e98     libucrt:lcidtoname_downlevel.obj
 0002:00004ea8       ??_C@_1BG@CMBHIPBE@?$AAs?$AAr?$AA?9?$AAB?$AAA?$AA?9?$AAC?$AAy?$AAr?$AAl@ 0000000180025ea8     libucrt:lcidtoname_downlevel.obj
 0002:00004ec0       ??_C@_1O@HEDBLHNP@?$AAs?$AAm?$AAa?$AA?9?$AAS?$AAE@ 0000000180025ec0     libucrt:lcidtoname_downlevel.obj
 0002:00004ed0       ??_C@_1M@DAGCADIM@?$AAa?$AAr?$AA?9?$AAO?$AAM@ 0000000180025ed0     libucrt:lcidtoname_downlevel.obj
 0002:00004ee0       ??_C@_1M@FODLMICG@?$AAe?$AAn?$AA?9?$AAJ?$AAM@ 0000000180025ee0     libucrt:lcidtoname_downlevel.obj
 0002:00004ef0       ??_C@_1M@DNMLCIHB@?$AAe?$AAs?$AA?9?$AAV?$AAE@ 0000000180025ef0     libucrt:lcidtoname_downlevel.obj
 0002:00004f00       ??_C@_1O@EOKHMKJK@?$AAs?$AAm?$AAs?$AA?9?$AAF?$AAI@ 0000000180025f00     libucrt:lcidtoname_downlevel.obj
 0002:00004f10       ??_C@_1M@CAFJMKOF@?$AAa?$AAr?$AA?9?$AAY?$AAE@ 0000000180025f10     libucrt:lcidtoname_downlevel.obj
 0002:00004f20       ??_C@_1M@CBFHIJLI@?$AAe?$AAn?$AA?9?$AAC?$AAB@ 0000000180025f20     libucrt:lcidtoname_downlevel.obj
 0002:00004f30       ??_C@_1M@BGNFLDN@?$AAe?$AAs?$AA?9?$AAC?$AAO@ 0000000180025f30     libucrt:lcidtoname_downlevel.obj
 0002:00004f40       ??_C@_1O@JMPHMAMC@?$AAs?$AAm?$AAn?$AA?9?$AAF?$AAI@ 0000000180025f40     libucrt:lcidtoname_downlevel.obj
 0002:00004f50       ??_C@_1M@JLANABKE@?$AAa?$AAr?$AA?9?$AAS?$AAY@ 0000000180025f50     libucrt:lcidtoname_downlevel.obj
 0002:00004f60       ??_C@_1M@HPKGCFGN@?$AAe?$AAn?$AA?9?$AAB?$AAZ@ 0000000180025f60     libucrt:lcidtoname_downlevel.obj
 0002:00004f70       ??_C@_1M@OLJCMLGM@?$AAe?$AAs?$AA?9?$AAP?$AAE@ 0000000180025f70     libucrt:lcidtoname_downlevel.obj
 0002:00004f80       ??_C@_1M@MKKGFKLE@?$AAa?$AAr?$AA?9?$AAJ?$AAO@ 0000000180025f80     libucrt:lcidtoname_downlevel.obj
 0002:00004f90       ??_C@_1M@EKPGLDNI@?$AAe?$AAn?$AA?9?$AAT?$AAT@ 0000000180025f90     libucrt:lcidtoname_downlevel.obj
 0002:00004fa0       ??_C@_1M@OONGHFHE@?$AAe?$AAs?$AA?9?$AAA?$AAR@ 0000000180025fa0     libucrt:lcidtoname_downlevel.obj
 0002:00004fb0       ??_C@_1M@OOJFGBHE@?$AAa?$AAr?$AA?9?$AAL?$AAB@ 0000000180025fb0     libucrt:lcidtoname_downlevel.obj
 0002:00004fc0       ??_C@_1M@GCEJHNEG@?$AAe?$AAn?$AA?9?$AAZ?$AAW@ 0000000180025fc0     libucrt:lcidtoname_downlevel.obj
 0002:00004fd0       ??_C@_1M@JNOCAHJI@?$AAe?$AAs?$AA?9?$AAE?$AAC@ 0000000180025fd0     libucrt:lcidtoname_downlevel.obj
 0002:00004fe0       ??_C@_1M@JEFHPGGB@?$AAa?$AAr?$AA?9?$AAK?$AAW@ 0000000180025fe0     libucrt:lcidtoname_downlevel.obj
 0002:00004ff0       ??_C@_1M@MLKIBJOJ@?$AAe?$AAn?$AA?9?$AAP?$AAH@ 0000000180025ff0     libucrt:lcidtoname_downlevel.obj
 0002:00005000       ??_C@_1M@BDNIPEND@?$AAe?$AAs?$AA?9?$AAC?$AAL@ 0000000180026000     libucrt:lcidtoname_downlevel.obj
 0002:00005010       ??_C@_1M@MPNMEKBD@?$AAa?$AAr?$AA?9?$AAA?$AAE@ 0000000180026010     libucrt:lcidtoname_downlevel.obj
 0002:00005020       ??_C@_1M@KBJALCPI@?$AAe?$AAs?$AA?9?$AAU?$AAY@ 0000000180026020     libucrt:lcidtoname_downlevel.obj
 0002:00005030       ??_C@_1M@LLCCOAGA@?$AAa?$AAr?$AA?9?$AAB?$AAH@ 0000000180026030     libucrt:lcidtoname_downlevel.obj
 0002:00005040       ??_C@_1M@PBFNCDEL@?$AAe?$AAs?$AA?9?$AAP?$AAY@ 0000000180026040     libucrt:lcidtoname_downlevel.obj
 0002:00005050       ??_C@_1M@EDGINPNP@?$AAa?$AAr?$AA?9?$AAQ?$AAA@ 0000000180026050     libucrt:lcidtoname_downlevel.obj
 0002:00005060       ??_C@_1M@MKDBIIJI@?$AAe?$AAs?$AA?9?$AAB?$AAO@ 0000000180026060     libucrt:lcidtoname_downlevel.obj
 0002:00005070       ??_C@_1M@CPKKEBLD@?$AAe?$AAs?$AA?9?$AAS?$AAV@ 0000000180026070     libucrt:lcidtoname_downlevel.obj
 0002:00005080       ??_C@_1M@NDBGMMJL@?$AAe?$AAs?$AA?9?$AAH?$AAN@ 0000000180026080     libucrt:lcidtoname_downlevel.obj
 0002:00005090       ??_C@_1M@JIJIBHDP@?$AAe?$AAs?$AA?9?$AAN?$AAI@ 0000000180026090     libucrt:lcidtoname_downlevel.obj
 0002:000050a0       ??_C@_1M@CGFMKEEK@?$AAe?$AAs?$AA?9?$AAP?$AAR@ 00000001800260a0     libucrt:lcidtoname_downlevel.obj
 0002:000050b0       ??_C@_1O@ICJHKIIK@?$AAz?$AAh?$AA?9?$AAC?$AAH?$AAT@ 00000001800260b0     libucrt:lcidtoname_downlevel.obj
 0002:000050c0       ??_C@_15CLNEJCE@?$AAs?$AAr@ 00000001800260c0     libucrt:lcidtoname_downlevel.obj
 0002:00005f10       ??_C@_1M@KAHEKEIG@?$AAa?$AAf?$AA?9?$AAz?$AAa@ 0000000180026f10     libucrt:lcidtoname_downlevel.obj
 0002:00005f20       ??_C@_1M@GIECOABL@?$AAa?$AAr?$AA?9?$AAa?$AAe@ 0000000180026f20     libucrt:lcidtoname_downlevel.obj
 0002:00005f30       ??_C@_1M@BMLMEKGI@?$AAa?$AAr?$AA?9?$AAb?$AAh@ 0000000180026f30     libucrt:lcidtoname_downlevel.obj
 0002:00005f40       ??_C@_1M@DAPFDGGB@?$AAa?$AAr?$AA?9?$AAd?$AAz@ 0000000180026f40     libucrt:lcidtoname_downlevel.obj
 0002:00005f50       ??_C@_1M@FJNKGKIG@?$AAa?$AAr?$AA?9?$AAe?$AAg@ 0000000180026f50     libucrt:lcidtoname_downlevel.obj
 0002:00005f60       ??_C@_1M@FLGKKCLO@?$AAa?$AAr?$AA?9?$AAi?$AAq@ 0000000180026f60     libucrt:lcidtoname_downlevel.obj
 0002:00005f70       ??_C@_1M@GNDIPALM@?$AAa?$AAr?$AA?9?$AAj?$AAo@ 0000000180026f70     libucrt:lcidtoname_downlevel.obj
 0002:00005f80       ??_C@_1M@DDMJFMGJ@?$AAa?$AAr?$AA?9?$AAk?$AAw@ 0000000180026f80     libucrt:lcidtoname_downlevel.obj
 0002:00005f90       ??_C@_1M@EJALMLHM@?$AAa?$AAr?$AA?9?$AAl?$AAb@ 0000000180026f90     libucrt:lcidtoname_downlevel.obj
 0002:00005fa0       ??_C@_1M@MOBDBLOC@?$AAa?$AAr?$AA?9?$AAl?$AAy@ 0000000180026fa0     libucrt:lcidtoname_downlevel.obj
 0002:00005fb0       ??_C@_1M@JAOCLHDH@?$AAa?$AAr?$AA?9?$AAm?$AAa@ 0000000180026fb0     libucrt:lcidtoname_downlevel.obj
 0002:00005fc0       ??_C@_1M@JHPMKJIE@?$AAa?$AAr?$AA?9?$AAo?$AAm@ 0000000180026fc0     libucrt:lcidtoname_downlevel.obj
 0002:00005fd0       ??_C@_1M@OEPGHFNH@?$AAa?$AAr?$AA?9?$AAq?$AAa@ 0000000180026fd0     libucrt:lcidtoname_downlevel.obj
 0002:00005fe0       ??_C@_1M@KJDONENM@?$AAa?$AAr?$AA?9?$AAs?$AAa@ 0000000180026fe0     libucrt:lcidtoname_downlevel.obj
 0002:00005ff0       ??_C@_1M@DMJDKLKM@?$AAa?$AAr?$AA?9?$AAs?$AAy@ 0000000180026ff0     libucrt:lcidtoname_downlevel.obj
 0002:00006000       ??_C@_1M@OMFIPEDC@?$AAa?$AAr?$AA?9?$AAt?$AAn@ 0000000180027000     libucrt:lcidtoname_downlevel.obj
 0002:00006010       ??_C@_1M@IHMHGAON@?$AAa?$AAr?$AA?9?$AAy?$AAe@ 0000000180027010     libucrt:lcidtoname_downlevel.obj
 0002:00006020       ??_C@_1BG@KDCPGJGB@?$AAa?$AAz?$AA?9?$AAa?$AAz?$AA?9?$AAc?$AAy?$AAr?$AAl@ 0000000180027020     libucrt:lcidtoname_downlevel.obj
 0002:00006038       ??_C@_1BG@IBCKDDOE@?$AAa?$AAz?$AA?9?$AAa?$AAz?$AA?9?$AAl?$AAa?$AAt?$AAn@ 0000000180027038     libucrt:lcidtoname_downlevel.obj
 0002:00006050       ??_C@_1M@EGPFDCPD@?$AAb?$AAe?$AA?9?$AAb?$AAy@ 0000000180027050     libucrt:lcidtoname_downlevel.obj
 0002:00006060       ??_C@_1M@PCMGMCGC@?$AAb?$AAg?$AA?9?$AAb?$AAg@ 0000000180027060     libucrt:lcidtoname_downlevel.obj
 0002:00006070       ??_C@_1M@BJBMFGOB@?$AAb?$AAn?$AA?9?$AAi?$AAn@ 0000000180027070     libucrt:lcidtoname_downlevel.obj
 0002:00006080       ??_C@_1BG@EAKMMACD@?$AAb?$AAs?$AA?9?$AAb?$AAa?$AA?9?$AAl?$AAa?$AAt?$AAn@ 0000000180027080     libucrt:lcidtoname_downlevel.obj
 0002:00006098       ??_C@_1M@KGADAODK@?$AAc?$AAa?$AA?9?$AAe?$AAs@ 0000000180027098     libucrt:lcidtoname_downlevel.obj
 0002:000060a8       ??_C@_1M@COAJPDHI@?$AAc?$AAs?$AA?9?$AAc?$AAz@ 00000001800270a8     libucrt:lcidtoname_downlevel.obj
 0002:000060b8       ??_C@_1M@DHBHFONH@?$AAc?$AAy?$AA?9?$AAg?$AAb@ 00000001800270b8     libucrt:lcidtoname_downlevel.obj
 0002:000060c8       ??_C@_1M@IMGKELGA@?$AAd?$AAa?$AA?9?$AAd?$AAk@ 00000001800270c8     libucrt:lcidtoname_downlevel.obj
 0002:000060d8       ??_C@_1M@NNDGDNGA@?$AAd?$AAe?$AA?9?$AAa?$AAt@ 00000001800270d8     libucrt:lcidtoname_downlevel.obj
 0002:000060e8       ??_C@_1M@IKDBHEEM@?$AAd?$AAe?$AA?9?$AAc?$AAh@ 00000001800270e8     libucrt:lcidtoname_downlevel.obj
 0002:000060f8       ??_C@_1M@GFFOJMCJ@?$AAd?$AAe?$AA?9?$AAd?$AAe@ 00000001800270f8     libucrt:lcidtoname_downlevel.obj
 0002:00006108       ??_C@_1M@MDNLKBPM@?$AAd?$AAe?$AA?9?$AAl?$AAi@ 0000000180027108     libucrt:lcidtoname_downlevel.obj
 0002:00006118       ??_C@_1M@NJBEEJNL@?$AAd?$AAe?$AA?9?$AAl?$AAu@ 0000000180027118     libucrt:lcidtoname_downlevel.obj
 0002:00006128       ??_C@_1O@GNNELBAP@?$AAd?$AAi?$AAv?$AA?9?$AAm?$AAv@ 0000000180027128     libucrt:lcidtoname_downlevel.obj
 0002:00006138       ??_C@_1M@EJLEOGAE@?$AAe?$AAl?$AA?9?$AAg?$AAr@ 0000000180027138     libucrt:lcidtoname_downlevel.obj
 0002:00006148       ??_C@_1M@GMPONJN@?$AAe?$AAn?$AA?9?$AAa?$AAu@ 0000000180027148     libucrt:lcidtoname_downlevel.obj
 0002:00006158       ??_C@_1M@NIDIIPGF@?$AAe?$AAn?$AA?9?$AAb?$AAz@ 0000000180027158     libucrt:lcidtoname_downlevel.obj
 0002:00006168       ??_C@_1M@JEHMIMFO@?$AAe?$AAn?$AA?9?$AAc?$AAa@ 0000000180027168     libucrt:lcidtoname_downlevel.obj
 0002:00006178       ??_C@_1M@IGMJCDLA@?$AAe?$AAn?$AA?9?$AAc?$AAb@ 0000000180027178     libucrt:lcidtoname_downlevel.obj
 0002:00006188       ??_C@_1M@BNFIGBKG@?$AAe?$AAn?$AA?9?$AAg?$AAb@ 0000000180027188     libucrt:lcidtoname_downlevel.obj
 0002:00006198       ??_C@_1M@LKIFDIGP@?$AAe?$AAn?$AA?9?$AAi?$AAe@ 0000000180027198     libucrt:lcidtoname_downlevel.obj
 0002:000061a8       ??_C@_1M@PJKFGCCO@?$AAe?$AAn?$AA?9?$AAj?$AAm@ 00000001800271a8     libucrt:lcidtoname_downlevel.obj
 0002:000061b8       ??_C@_1M@KPPKEPBO@?$AAe?$AAn?$AA?9?$AAn?$AAz@ 00000001800271b8     libucrt:lcidtoname_downlevel.obj
 0002:000061c8       ??_C@_1M@GMDGLDOB@?$AAe?$AAn?$AA?9?$AAp?$AAh@ 00000001800271c8     libucrt:lcidtoname_downlevel.obj
 0002:000061d8       ??_C@_1M@ONGIBJNA@?$AAe?$AAn?$AA?9?$AAt?$AAt@ 00000001800271d8     libucrt:lcidtoname_downlevel.obj
 0002:000061e8       ??_C@_1M@LLODPCMM@?$AAe?$AAn?$AA?9?$AAu?$AAs@ 00000001800271e8     libucrt:lcidtoname_downlevel.obj
 0002:000061f8       ??_C@_1M@LAKFNPAN@?$AAe?$AAn?$AA?9?$AAz?$AAa@ 00000001800271f8     libucrt:lcidtoname_downlevel.obj
 0002:00006208       ??_C@_1M@MFNHNHEO@?$AAe?$AAn?$AA?9?$AAz?$AAw@ 0000000180027208     libucrt:lcidtoname_downlevel.obj
 0002:00006218       ??_C@_1M@EJEINPHM@?$AAe?$AAs?$AA?9?$AAa?$AAr@ 0000000180027218     libucrt:lcidtoname_downlevel.obj
 0002:00006228       ??_C@_1M@GNKPCCJA@?$AAe?$AAs?$AA?9?$AAb?$AAo@ 0000000180027228     libucrt:lcidtoname_downlevel.obj
 0002:00006238       ??_C@_1M@LEEGFONL@?$AAe?$AAs?$AA?9?$AAc?$AAl@ 0000000180027238     libucrt:lcidtoname_downlevel.obj
 0002:00006248       ??_C@_1M@KGPDPBDF@?$AAe?$AAs?$AA?9?$AAc?$AAo@ 0000000180027248     libucrt:lcidtoname_downlevel.obj
 0002:00006258       ??_C@_1M@EIAHOHH@?$AAe?$AAs?$AA?9?$AAc?$AAr@ 0000000180027258     libucrt:lcidtoname_downlevel.obj
 0002:00006268       ??_C@_1M@LLPGMBIN@?$AAe?$AAs?$AA?9?$AAd?$AAo@ 0000000180027268     libucrt:lcidtoname_downlevel.obj
 0002:00006278       ??_C@_1M@DKHMKNJA@?$AAe?$AAs?$AA?9?$AAe?$AAc@ 0000000180027278     libucrt:lcidtoname_downlevel.obj
 0002:00006288       ??_C@_1M@GKGFPKAP@?$AAe?$AAs?$AA?9?$AAe?$AAs@ 0000000180027288     libucrt:lcidtoname_downlevel.obj
 0002:00006298       ??_C@_1M@LKHKGDLN@?$AAe?$AAs?$AA?9?$AAg?$AAt@ 0000000180027298     libucrt:lcidtoname_downlevel.obj
 0002:000062a8       ??_C@_1M@HEIIGGJD@?$AAe?$AAs?$AA?9?$AAh?$AAn@ 00000001800272a8     libucrt:lcidtoname_downlevel.obj
 0002:000062b8       ??_C@_1M@FBDHPPGD@?$AAe?$AAs?$AA?9?$AAm?$AAx@ 00000001800272b8     libucrt:lcidtoname_downlevel.obj
 0002:000062c8       ??_C@_1M@DPAGLNDH@?$AAe?$AAs?$AA?9?$AAn?$AAi@ 00000001800272c8     libucrt:lcidtoname_downlevel.obj
 0002:000062d8       ??_C@_1M@MDGOPGDD@?$AAe?$AAs?$AA?9?$AAp?$AAa@ 00000001800272d8     libucrt:lcidtoname_downlevel.obj
 0002:000062e8       ??_C@_1M@EMAMGBGE@?$AAe?$AAs?$AA?9?$AAp?$AAe@ 00000001800272e8     libucrt:lcidtoname_downlevel.obj
 0002:000062f8       ??_C@_1M@IBMCAOEC@?$AAe?$AAs?$AA?9?$AAp?$AAr@ 00000001800272f8     libucrt:lcidtoname_downlevel.obj
 0002:00006308       ??_C@_1M@FGMDIJED@?$AAe?$AAs?$AA?9?$AAp?$AAy@ 0000000180027308     libucrt:lcidtoname_downlevel.obj
 0002:00006318       ??_C@_1M@IIDEOLLL@?$AAe?$AAs?$AA?9?$AAs?$AAv@ 0000000180027318     libucrt:lcidtoname_downlevel.obj
 0002:00006328       ??_C@_1M@GAOBIPA@?$AAe?$AAs?$AA?9?$AAu?$AAy@ 0000000180027328     libucrt:lcidtoname_downlevel.obj
 0002:00006338       ??_C@_1M@JKFFICHJ@?$AAe?$AAs?$AA?9?$AAv?$AAe@ 0000000180027338     libucrt:lcidtoname_downlevel.obj
 0002:00006348       ??_C@_1M@PNMLOJDF@?$AAe?$AAt?$AA?9?$AAe?$AAe@ 0000000180027348     libucrt:lcidtoname_downlevel.obj
 0002:00006358       ??_C@_1M@GHHLIKEI@?$AAe?$AAu?$AA?9?$AAe?$AAs@ 0000000180027358     libucrt:lcidtoname_downlevel.obj
 0002:00006368       ??_C@_1M@PBNONODE@?$AAf?$AAa?$AA?9?$AAi?$AAr@ 0000000180027368     libucrt:lcidtoname_downlevel.obj
 0002:00006378       ??_C@_1M@JEEHPMIL@?$AAf?$AAi?$AA?9?$AAf?$AAi@ 0000000180027378     libucrt:lcidtoname_downlevel.obj
 0002:00006388       ??_C@_1M@LMDCNDBA@?$AAf?$AAo?$AA?9?$AAf?$AAo@ 0000000180027388     libucrt:lcidtoname_downlevel.obj
 0002:00006398       ??_C@_1M@JKEOHLDK@?$AAf?$AAr?$AA?9?$AAb?$AAe@ 0000000180027398     libucrt:lcidtoname_downlevel.obj
 0002:000063a8       ??_C@_1M@NOHADPMI@?$AAf?$AAr?$AA?9?$AAc?$AAa@ 00000001800273a8     libucrt:lcidtoname_downlevel.obj
 0002:000063b8       ??_C@_1M@KDHIHAEC@?$AAf?$AAr?$AA?9?$AAc?$AAh@ 00000001800273b8     libucrt:lcidtoname_downlevel.obj
 0002:000063c8       ??_C@_1M@MMBBFGAK@?$AAf?$AAr?$AA?9?$AAf?$AAr@ 00000001800273c8     libucrt:lcidtoname_downlevel.obj
 0002:000063d8       ??_C@_1M@PAFNENNF@?$AAf?$AAr?$AA?9?$AAl?$AAu@ 00000001800273d8     libucrt:lcidtoname_downlevel.obj
 0002:000063e8       ??_C@_1M@EOHDJGDD@?$AAf?$AAr?$AA?9?$AAm?$AAc@ 00000001800273e8     libucrt:lcidtoname_downlevel.obj
 0002:000063f8       ??_C@_1M@FAPLLOPF@?$AAg?$AAl?$AA?9?$AAe?$AAs@ 00000001800273f8     libucrt:lcidtoname_downlevel.obj
 0002:00006408       ??_C@_1M@FOPBFLOO@?$AAg?$AAu?$AA?9?$AAi?$AAn@ 0000000180027408     libucrt:lcidtoname_downlevel.obj
 0002:00006418       ??_C@_1M@KBMCINPM@?$AAh?$AAe?$AA?9?$AAi?$AAl@ 0000000180027418     libucrt:lcidtoname_downlevel.obj
 0002:00006428       ??_C@_1M@BBPHKFPJ@?$AAh?$AAi?$AA?9?$AAi?$AAn@ 0000000180027428     libucrt:lcidtoname_downlevel.obj
 0002:00006438       ??_C@_1M@PMBNDPHD@?$AAh?$AAr?$AA?9?$AAb?$AAa@ 0000000180027438     libucrt:lcidtoname_downlevel.obj
 0002:00006448       ??_C@_1M@BPCKOEGE@?$AAh?$AAr?$AA?9?$AAh?$AAr@ 0000000180027448     libucrt:lcidtoname_downlevel.obj
 0002:00006458       ??_C@_1M@GACBMHKE@?$AAh?$AAu?$AA?9?$AAh?$AAu@ 0000000180027458     libucrt:lcidtoname_downlevel.obj
 0002:00006468       ??_C@_1M@MILPAJJC@?$AAh?$AAy?$AA?9?$AAa?$AAm@ 0000000180027468     libucrt:lcidtoname_downlevel.obj
 0002:00006478       ??_C@_1M@BABBICEC@?$AAi?$AAd?$AA?9?$AAi?$AAd@ 0000000180027478     libucrt:lcidtoname_downlevel.obj
 0002:00006488       ??_C@_1M@BIKNHHPF@?$AAi?$AAs?$AA?9?$AAi?$AAs@ 0000000180027488     libucrt:lcidtoname_downlevel.obj
 0002:00006498       ??_C@_1M@NMPCJPHE@?$AAi?$AAt?$AA?9?$AAc?$AAh@ 0000000180027498     libucrt:lcidtoname_downlevel.obj
 0002:000064a8       ??_C@_1M@GHKGFEDF@?$AAi?$AAt?$AA?9?$AAi?$AAt@ 00000001800274a8     libucrt:lcidtoname_downlevel.obj
 0002:000064b8       ??_C@_1M@NIEJCJJA@?$AAj?$AAa?$AA?9?$AAj?$AAp@ 00000001800274b8     libucrt:lcidtoname_downlevel.obj
 0002:000064c8       ??_C@_1M@JILFNBIM@?$AAk?$AAa?$AA?9?$AAg?$AAe@ 00000001800274c8     libucrt:lcidtoname_downlevel.obj
 0002:000064d8       ??_C@_1M@PACPMGPH@?$AAk?$AAk?$AA?9?$AAk?$AAz@ 00000001800274d8     libucrt:lcidtoname_downlevel.obj
 0002:000064e8       ??_C@_1M@IELFGMHA@?$AAk?$AAn?$AA?9?$AAi?$AAn@ 00000001800274e8     libucrt:lcidtoname_downlevel.obj
 0002:000064f8       ??_C@_1O@IBBJHCH@?$AAk?$AAo?$AAk?$AA?9?$AAi?$AAn@ 00000001800274f8     libucrt:lcidtoname_downlevel.obj
 0002:00006508       ??_C@_1M@DMHAEOGC@?$AAk?$AAo?$AA?9?$AAk?$AAr@ 0000000180027508     libucrt:lcidtoname_downlevel.obj
 0002:00006518       ??_C@_1M@HBAHBIGA@?$AAk?$AAy?$AA?9?$AAk?$AAg@ 0000000180027518     libucrt:lcidtoname_downlevel.obj
 0002:00006528       ??_C@_1M@KPMILCJG@?$AAl?$AAt?$AA?9?$AAl?$AAt@ 0000000180027528     libucrt:lcidtoname_downlevel.obj
 0002:00006538       ??_C@_1M@BDEKKCA@?$AAl?$AAv?$AA?9?$AAl?$AAv@ 0000000180027538     libucrt:lcidtoname_downlevel.obj
 0002:00006548       ??_C@_1M@ELCKCCJJ@?$AAm?$AAi?$AA?9?$AAn?$AAz@ 0000000180027548     libucrt:lcidtoname_downlevel.obj
 0002:00006558       ??_C@_1M@CBOOLAPA@?$AAm?$AAk?$AA?9?$AAm?$AAk@ 0000000180027558     libucrt:lcidtoname_downlevel.obj
 0002:00006568       ??_C@_1M@GPHNBJKN@?$AAm?$AAl?$AA?9?$AAi?$AAn@ 0000000180027568     libucrt:lcidtoname_downlevel.obj
 0002:00006578       ??_C@_1M@PABJILIG@?$AAm?$AAn?$AA?9?$AAm?$AAn@ 0000000180027578     libucrt:lcidtoname_downlevel.obj
 0002:00006588       ??_C@_1M@FGBKKIPG@?$AAm?$AAr?$AA?9?$AAi?$AAn@ 0000000180027588     libucrt:lcidtoname_downlevel.obj
 0002:00006598       ??_C@_1M@NDBPDDAL@?$AAm?$AAs?$AA?9?$AAb?$AAn@ 0000000180027598     libucrt:lcidtoname_downlevel.obj
 0002:000065a8       ??_C@_1M@OPIHOOPI@?$AAm?$AAs?$AA?9?$AAm?$AAy@ 00000001800275a8     libucrt:lcidtoname_downlevel.obj
 0002:000065b8       ??_C@_1M@PPDBCNFM@?$AAm?$AAt?$AA?9?$AAm?$AAt@ 00000001800275b8     libucrt:lcidtoname_downlevel.obj
 0002:000065c8       ??_C@_1M@KDJDKMDD@?$AAn?$AAb?$AA?9?$AAn?$AAo@ 00000001800275c8     libucrt:lcidtoname_downlevel.obj
 0002:000065d8       ??_C@_1M@KFCFLMJP@?$AAn?$AAl?$AA?9?$AAb?$AAe@ 00000001800275d8     libucrt:lcidtoname_downlevel.obj
 0002:000065e8       ??_C@_1M@KPOPDDGO@?$AAn?$AAl?$AA?9?$AAn?$AAl@ 00000001800275e8     libucrt:lcidtoname_downlevel.obj
 0002:000065f8       ??_C@_1M@LJKPEMLN@?$AAn?$AAn?$AA?9?$AAn?$AAo@ 00000001800275f8     libucrt:lcidtoname_downlevel.obj
 0002:00006608       ??_C@_1M@BDGHHBFL@?$AAn?$AAs?$AA?9?$AAz?$AAa@ 0000000180027608     libucrt:lcidtoname_downlevel.obj
 0002:00006618       ??_C@_1M@IDEHOAP@?$AAp?$AAa?$AA?9?$AAi?$AAn@ 0000000180027618     libucrt:lcidtoname_downlevel.obj
 0002:00006628       ??_C@_1M@HDBKGOGH@?$AAp?$AAl?$AA?9?$AAp?$AAl@ 0000000180027628     libucrt:lcidtoname_downlevel.obj
 0002:00006638       ??_C@_1M@LJLLCMEH@?$AAp?$AAt?$AA?9?$AAb?$AAr@ 0000000180027638     libucrt:lcidtoname_downlevel.obj
 0002:00006648       ??_C@_1M@NCMONAAL@?$AAp?$AAt?$AA?9?$AAp?$AAt@ 0000000180027648     libucrt:lcidtoname_downlevel.obj
 0002:00006658       ??_C@_1O@EAKMAJDN@?$AAq?$AAu?$AAz?$AA?9?$AAb?$AAo@ 0000000180027658     libucrt:lcidtoname_downlevel.obj
 0002:00006668       ??_C@_1O@BHHPIGDN@?$AAq?$AAu?$AAz?$AA?9?$AAe?$AAc@ 0000000180027668     libucrt:lcidtoname_downlevel.obj
 0002:00006678       ??_C@_1O@GBAPEKMJ@?$AAq?$AAu?$AAz?$AA?9?$AAp?$AAe@ 0000000180027678     libucrt:lcidtoname_downlevel.obj
 0002:00006688       ??_C@_1M@CLGLEFBO@?$AAr?$AAo?$AA?9?$AAr?$AAo@ 0000000180027688     libucrt:lcidtoname_downlevel.obj
 0002:00006698       ??_C@_1M@CEEDODME@?$AAr?$AAu?$AA?9?$AAr?$AAu@ 0000000180027698     libucrt:lcidtoname_downlevel.obj
 0002:000066a8       ??_C@_1M@HPKKKMPP@?$AAs?$AAa?$AA?9?$AAi?$AAn@ 00000001800276a8     libucrt:lcidtoname_downlevel.obj
 0002:000066b8       ??_C@_1M@BKMAIGOJ@?$AAs?$AAe?$AA?9?$AAf?$AAi@ 00000001800276b8     libucrt:lcidtoname_downlevel.obj
 0002:000066c8       ??_C@_1M@NDPIFLFI@?$AAs?$AAe?$AA?9?$AAn?$AAo@ 00000001800276c8     libucrt:lcidtoname_downlevel.obj
 0002:000066d8       ??_C@_1M@DANKKHJ@?$AAs?$AAe?$AA?9?$AAs?$AAe@ 00000001800276d8     libucrt:lcidtoname_downlevel.obj
 0002:000066e8       ??_C@_1M@PNBLONPJ@?$AAs?$AAk?$AA?9?$AAs?$AAk@ 00000001800276e8     libucrt:lcidtoname_downlevel.obj
 0002:000066f8       ??_C@_1M@LFMODOAL@?$AAs?$AAl?$AA?9?$AAs?$AAi@ 00000001800276f8     libucrt:lcidtoname_downlevel.obj
 0002:00006708       ??_C@_1O@DFKOMPG@?$AAs?$AAm?$AAa?$AA?9?$AAn?$AAo@ 0000000180027708     libucrt:lcidtoname_downlevel.obj
 0002:00006718       ??_C@_1O@NDKPBNNH@?$AAs?$AAm?$AAa?$AA?9?$AAs?$AAe@ 0000000180027718     libucrt:lcidtoname_downlevel.obj
 0002:00006728       ??_C@_1O@PLLKBHAB@?$AAs?$AAm?$AAj?$AA?9?$AAn?$AAo@ 0000000180027728     libucrt:lcidtoname_downlevel.obj
 0002:00006738       ??_C@_1O@CLEPOGCA@?$AAs?$AAm?$AAj?$AA?9?$AAs?$AAe@ 0000000180027738     libucrt:lcidtoname_downlevel.obj
 0002:00006748       ??_C@_1O@DLGJGKMK@?$AAs?$AAm?$AAn?$AA?9?$AAf?$AAi@ 0000000180027748     libucrt:lcidtoname_downlevel.obj
 0002:00006758       ??_C@_1O@OJDJGAJC@?$AAs?$AAm?$AAs?$AA?9?$AAf?$AAi@ 0000000180027758     libucrt:lcidtoname_downlevel.obj
 0002:00006768       ??_C@_1M@BOFOGHPB@?$AAs?$AAq?$AA?9?$AAa?$AAl@ 0000000180027768     libucrt:lcidtoname_downlevel.obj
 0002:00006778       ??_C@_1BG@LJBBIPGB@?$AAs?$AAr?$AA?9?$AAb?$AAa?$AA?9?$AAc?$AAy?$AAr?$AAl@ 0000000180027778     libucrt:lcidtoname_downlevel.obj
 0002:00006790       ??_C@_1BG@JLBENFOE@?$AAs?$AAr?$AA?9?$AAb?$AAa?$AA?9?$AAl?$AAa?$AAt?$AAn@ 0000000180027790     libucrt:lcidtoname_downlevel.obj
 0002:000067a8       ??_C@_1BG@KODPNHE@?$AAs?$AAr?$AA?9?$AAs?$AAp?$AA?9?$AAc?$AAy?$AAr?$AAl@ 00000001800277a8     libucrt:lcidtoname_downlevel.obj
 0002:000067c0       ??_C@_1BG@CIOGKHPB@?$AAs?$AAr?$AA?9?$AAs?$AAp?$AA?9?$AAl?$AAa?$AAt?$AAn@ 00000001800277c0     libucrt:lcidtoname_downlevel.obj
 0002:000067d8       ??_C@_1M@NGFJLMAC@?$AAs?$AAv?$AA?9?$AAf?$AAi@ 00000001800277d8     libucrt:lcidtoname_downlevel.obj
 0002:000067e8       ??_C@_1M@MPJEJAJC@?$AAs?$AAv?$AA?9?$AAs?$AAe@ 00000001800277e8     libucrt:lcidtoname_downlevel.obj
 0002:000067f8       ??_C@_1M@MPNDHLFK@?$AAs?$AAw?$AA?9?$AAk?$AAe@ 00000001800277f8     libucrt:lcidtoname_downlevel.obj
 0002:00006808       ??_C@_1O@KOHBJJI@?$AAs?$AAy?$AAr?$AA?9?$AAs?$AAy@ 0000000180027808     libucrt:lcidtoname_downlevel.obj
 0002:00006818       ??_C@_1M@LDCEFHA@?$AAt?$AAa?$AA?9?$AAi?$AAn@ 0000000180027818     libucrt:lcidtoname_downlevel.obj
 0002:00006828       ??_C@_1M@CNJOFAK@?$AAt?$AAe?$AA?9?$AAi?$AAn@ 0000000180027828     libucrt:lcidtoname_downlevel.obj
 0002:00006838       ??_C@_1M@GNAECACD@?$AAt?$AAh?$AA?9?$AAt?$AAh@ 0000000180027838     libucrt:lcidtoname_downlevel.obj
 0002:00006848       ??_C@_1M@CHBIHOJO@?$AAt?$AAn?$AA?9?$AAz?$AAa@ 0000000180027848     libucrt:lcidtoname_downlevel.obj
 0002:00006858       ??_C@_1M@GCCMIGPJ@?$AAt?$AAr?$AA?9?$AAt?$AAr@ 0000000180027858     libucrt:lcidtoname_downlevel.obj
 0002:00006868       ??_C@_1M@CELMCNBK@?$AAt?$AAt?$AA?9?$AAr?$AAu@ 0000000180027868     libucrt:lcidtoname_downlevel.obj
 0002:00006878       ??_C@_1M@KLMCELGA@?$AAu?$AAk?$AA?9?$AAu?$AAa@ 0000000180027878     libucrt:lcidtoname_downlevel.obj
 0002:00006888       ??_C@_1M@EPAJJAJF@?$AAu?$AAr?$AA?9?$AAp?$AAk@ 0000000180027888     libucrt:lcidtoname_downlevel.obj
 0002:00006898       ??_C@_1BG@GEGPMCDJ@?$AAu?$AAz?$AA?9?$AAu?$AAz?$AA?9?$AAc?$AAy?$AAr?$AAl@ 0000000180027898     libucrt:lcidtoname_downlevel.obj
 0002:000068b0       ??_C@_1BG@EGGKJILM@?$AAu?$AAz?$AA?9?$AAu?$AAz?$AA?9?$AAl?$AAa?$AAt?$AAn@ 00000001800278b0     libucrt:lcidtoname_downlevel.obj
 0002:000068c8       ??_C@_1M@GFOCLFF@?$AAv?$AAi?$AA?9?$AAv?$AAn@ 00000001800278c8     libucrt:lcidtoname_downlevel.obj
 0002:000068d8       ??_C@_1M@CPAMEDFI@?$AAx?$AAh?$AA?9?$AAz?$AAa@ 00000001800278d8     libucrt:lcidtoname_downlevel.obj
 0002:000068e8       ??_C@_1O@EBKIFIGN@?$AAz?$AAh?$AA?9?$AAc?$AAh?$AAs@ 00000001800278e8     libucrt:lcidtoname_downlevel.obj
 0002:000068f8       ??_C@_1O@NMHPGANE@?$AAz?$AAh?$AA?9?$AAc?$AAh?$AAt@ 00000001800278f8     libucrt:lcidtoname_downlevel.obj
 0002:00006908       ??_C@_1M@LPINJOMC@?$AAz?$AAh?$AA?9?$AAc?$AAn@ 0000000180027908     libucrt:lcidtoname_downlevel.obj
 0002:00006918       ??_C@_1M@OCJEJODD@?$AAz?$AAh?$AA?9?$AAh?$AAk@ 0000000180027918     libucrt:lcidtoname_downlevel.obj
 0002:00006928       ??_C@_1M@DNDLJINH@?$AAz?$AAh?$AA?9?$AAm?$AAo@ 0000000180027928     libucrt:lcidtoname_downlevel.obj
 0002:00006938       ??_C@_1M@MBFDNDND@?$AAz?$AAh?$AA?9?$AAs?$AAg@ 0000000180027938     libucrt:lcidtoname_downlevel.obj
 0002:00006948       ??_C@_1M@IMEPLEPE@?$AAz?$AAh?$AA?9?$AAt?$AAw@ 0000000180027948     libucrt:lcidtoname_downlevel.obj
 0002:00006958       ??_C@_1M@BBGHNHJP@?$AAz?$AAu?$AA?9?$AAz?$AAa@ 0000000180027958     libucrt:lcidtoname_downlevel.obj
 0002:00006970       ?large_power_data@?1??multiply_by_power_of_ten@__crt_strtox@@YA_NAEAUbig_integer@2@I@Z@4QBIB 0000000180027970     libucrt:cfout.obj
 0002:00007318       ?small_powers_of_ten@?1??multiply_by_power_of_ten@__crt_strtox@@YA_NAEAUbig_integer@2@I@Z@4QBIB 0000000180028318     libucrt:cfout.obj
 0002:0000733c       ??_C@_01GBGANLPD@0@        000000018002833c     libucrt:cfout.obj
 0002:00007340       ??_C@_05DNEBIAHO@1?$CDINF@ 0000000180028340     libucrt:cfout.obj
 0002:00007348       ??_C@_06IMKFLFPG@1?$CDQNAN@ 0000000180028348     libucrt:cfout.obj
 0002:00007350       ??_C@_06PGGFOGJG@1?$CDSNAN@ 0000000180028350     libucrt:cfout.obj
 0002:00007358       ??_C@_05PHHOCPM@1?$CDIND@  0000000180028358     libucrt:cfout.obj
 0002:00007360       __real@3ff0000000000000    0000000180028360     libucrt:ceil.obj
 0002:000075c0       ??_C@_1BA@BALFACEM@?$AAC?$AAO?$AAN?$AAO?$AAU?$AAT?$AA$@ 00000001800285c0     libucrt:initcon.obj
 0002:000075d0       __log10_256_lead           00000001800285d0     libucrt:log10_256_lead_tail_table.obj
 0002:00007de0       __log10_256_tail           0000000180028de0     libucrt:log10_256_lead_tail_table.obj
 0002:000085f0       __log_F_inv_qword          00000001800295f0     libucrt:log_f_inv_qword_table.obj
 0002:00008e00       ??_C@_05HGHHAHAP@log10@    0000000180029e00     libucrt:log_special.obj
 0002:00008e20       ??_C@_1BK@DBDEIDLH@?$AAK?$AAE?$AAR?$AAN?$AAE?$AAL?$AA3?$AA2?$AA?4?$AAD?$AAL?$AAL@ 0000000180029e20     DelayImp:delayhlp.obj
 0002:00008e40       ??_C@_0BI@OMNLIJDB@AcquireSRWLockExclusive@ 0000000180029e40     DelayImp:delayhlp.obj
 0002:00008e58       ??_C@_0BI@HMIEPCNJ@ReleaseSRWLockExclusive@ 0000000180029e58     DelayImp:delayhlp.obj
 0002:00008e70       __pfnDliFailureHook2       0000000180029e70     DelayImp:delayhk1.obj
 0002:00008e80       _load_config_used          0000000180029e80     LIBCMT:loadcfg.obj
 0002:00008f88       ??_C@_0BC@BDKFLDHL@unknown?5exception@ 0000000180029f88     scrypt_common.obj
 0002:00008fa0       ??_C@_0BF@KINCDENJ@bad?5array?5new?5length@ 0000000180029fa0     scrypt_common.obj
 0002:00008fb8       ??_C@_0BA@JFNIOLAK@string?5too?5long@ 0000000180029fb8     scrypt_common.obj
 0002:00008fc8       ??_C@_07IPNMCAN@success@   0000000180029fc8     scrypt_common.obj
 0002:00008fd0       ??_C@_0CH@HOFNEDKD@getrlimit?5or?5sysctl?$CIhw?4usermem?$CJ@ 0000000180029fd0     scrypt_common.obj
 0002:00008ff8       ??_C@_0CF@KLABMAOP@clock_getres?5or?5clock_gettime?5f@ 0000000180029ff8     scrypt_common.obj
 0002:00009020       ??_C@_0BM@PELKOOBE@error?5computing?5derived?5key@ 000000018002a020     scrypt_common.obj
 0002:00009040       ??_C@_0CG@OEOCPJCD@could?5not?5read?5salt?5from?5?1dev?1u@ 000000018002a040     scrypt_common.obj
 0002:00009068       ??_C@_0BB@LALBBILB@error?5in?5OpenSSL@ 000000018002a068     scrypt_common.obj
 0002:00009080       ??_C@_0O@IMHFIAOC@malloc?5failed@ 000000018002a080     scrypt_common.obj
 0002:00009090       ??_C@_0CL@ECCMPNEC@data?5is?5not?5a?5valid?5scrypt?9encr@ 000000018002a090     scrypt_common.obj
 0002:000090c0       ??_C@_0BL@LEDPCGLM@unrecognized?5scrypt?5format@ 000000018002a0c0     scrypt_common.obj
 0002:000090e0       ??_C@_0CL@MEKMMADP@decrypting?5file?5would?5take?5too?5@ 000000018002a0e0     scrypt_common.obj
 0002:00009110       ??_C@_0CE@OBGMJCII@decrypting?5file?5would?5take?5too?5@ 000000018002a110     scrypt_common.obj
 0002:00009138       ??_C@_0BG@DFBEGIDH@password?5is?5incorrect@ 000000018002a138     scrypt_common.obj
 0002:00009150       ??_C@_0BK@FLCPNNLJ@error?5writing?5output?5file@ 000000018002a150     scrypt_common.obj
 0002:00009170       ??_C@_0BJ@HGNNPBNC@error?5reading?5input?5file@ 000000018002a170     scrypt_common.obj
 0002:00009190       ??_C@_0N@CBGOPKMC@error?5unkown@ 000000018002a190     scrypt_common.obj
 0002:000091a0       ??_C@_03NLJIHOMM@?5?9?5@   000000018002a1a0     scrypt_common.obj
 0002:000091a8       ??_7exception@stdext@@6B@  000000018002a1a8     scrypt_common.obj
 0002:000091c0       ??_7bad_array_new_length@stdext@@6B@ 000000018002a1c0     scrypt_common.obj
 0002:000091d8       ??_C@_0BC@EBHDFLHM@nan?3Callback?3Call@ 000000018002a1d8     scrypt_params_async.obj
 0002:000091ec       ??_C@_01NANMIPIL@N@        000000018002a1ec     scrypt_params_async.obj
 0002:000091f0       ??_C@_01KDCPPGHE@r@        000000018002a1f0     scrypt_params_async.obj
 0002:000091f4       ??_C@_01JBBJJEPG@p@        000000018002a1f4     scrypt_params_async.obj
 0002:000091f8       ??_C@_0BA@KEENCHNI@nan?3AsyncWorker@ 000000018002a1f8     scrypt_params_async.obj
 0002:00009208       ??_7AsyncWorker@Nan@@6B@   000000018002a208     scrypt_params_async.obj
 0002:00009238       ??_7ScryptParamsAsyncWorker@@6B@ 000000018002a238     scrypt_params_async.obj
 0002:00009268       ??_7ScryptAsyncWorker@@6B@ 000000018002a268     scrypt_params_async.obj
 0002:000092a0       ??_C@_1IK@JJKBPKFA@?$AAC?$AA?3?$AA?2?$AAU?$AAs?$AAe?$AAr?$AAs?$AA?2?$AAc?$AAl?$AAa?$AAr?$AAi?$AA?2@ 000000018002a2a0     scrypt_kdf_async.obj
 0002:00009330       ??_C@_1FM@LOELJOFK@?$AAs?$AAi?$AAz?$AAe?$AA?5?$AA?$DM?$AA?$DN?$AA?5?$AAi?$AAm?$AAp?$AA?3?$AA?3?$AAk?$AAM@ 000000018002a330     scrypt_kdf_async.obj
 0002:00009390       ??_C@_09EDMIOGPB@keyBuffer@ 000000018002a390     scrypt_kdf_async.obj
 0002:000093a0       ??_C@_09BCNNNAMP@KDFResult@ 000000018002a3a0     scrypt_kdf_async.obj
 0002:000093ac       ??_C@_04OKLIMCN@salt@      000000018002a3ac     scrypt_kdf_async.obj
 0002:000093b8       ??_C@_0BG@OMGPOKGA@ScryptPeristentObject@ 000000018002a3b8     scrypt_kdf_async.obj
 0002:000093d0       ??_7ScryptKDFAsyncWorker@@6B@ 000000018002a3d0     scrypt_kdf_async.obj
 0002:00009400       ??_C@_09MFPCDCBA@KDFBuffer@ 000000018002a400     scrypt_kdf-verify_async.obj
 0002:00009410       ??_C@_09MJFOFCB@KeyBuffer@ 000000018002a410     scrypt_kdf-verify_async.obj
 0002:00009420       ??_7ScryptKDFVerifyAsyncWorker@@6B@ 000000018002a420     scrypt_kdf-verify_async.obj
 0002:00009450       ??_C@_0L@NPKHFNEG@HashBuffer@ 000000018002a450     scrypt_hash_async.obj
 0002:00009460       ??_C@_0L@KBNLHAN@SaltBuffer@ 000000018002a460     scrypt_hash_async.obj
 0002:00009470       ??_7ScryptHashAsyncWorker@@6B@ 000000018002a470     scrypt_hash_async.obj
 0002:000094a0       ??_C@_0L@JEKBOONB@paramsSync@ 000000018002a4a0     scrypt_node.obj
 0002:000094ac       ??_C@_06JMGHNNK@params@    000000018002a4ac     scrypt_node.obj
 0002:000094b8       ??_C@_07NDBFJMIJ@kdfSync@  000000018002a4b8     scrypt_node.obj
 0002:000094c0       ??_C@_03EOOFPPDM@kdf@      000000018002a4c0     scrypt_node.obj
 0002:000094c8       ??_C@_0L@FIGOIMB@verifySync@ 000000018002a4c8     scrypt_node.obj
 0002:000094d4       ??_C@_06MCIJCFHC@verify@   000000018002a4d4     scrypt_node.obj
 0002:000094e0       ??_C@_08LODGKLAK@hashSync@ 000000018002a4e0     scrypt_node.obj
 0002:000094ec       ??_C@_04OIJGJDKO@hash@     000000018002a4ec     scrypt_node.obj
 0002:00009500       ??_C@_0FB@CEGENIEJ@C?3?2Users?2clari?2Desktop?2WTT?9Mark@ 000000018002a500     scrypt_node.obj
 0002:00009554       ??_C@_06LLPEBPNI@scrypt@   000000018002a554     scrypt_node.obj
 0002:00009560       ??_C@_08JDDNMFDB@node?4exe@ 000000018002a560     win_delay_load_hook.obj
 0002:00009570       __pfnDliNotifyHook2        000000018002a570     win_delay_load_hook.obj
 0002:000095a0       ??_C@_1NO@CAEJCFPM@?$AAC?$AA?3?$AA?2?$AAU?$AAs?$AAe?$AAr?$AAs?$AA?2?$AAc?$AAl?$AAa?$AAr?$AAi?$AA?2@ 000000018002a5a0     scrypt_lib:sha256.obj
 0002:00009680       ??_C@_1EG@KGGIIOCD@?$AAd?$AAk?$AAL?$AAe?$AAn?$AA?5?$AA?$DM?$AA?$DN?$AA?5?$AA3?$AA2?$AA?5?$AA?$CK?$AA?5?$AA?$CI@ 000000018002a680     scrypt_lib:sha256.obj
 0002:000096c8       ??_C@_0O@GFBIGFGC@pleaseletmein@ 000000018002a6c8     scrypt_lib:crypto_scrypt.obj
 0002:000096d8       ??_C@_0P@HOJBDGEG@SodiumChloride@ 000000018002a6d8     scrypt_lib:crypto_scrypt.obj
 0002:000096e8       ??_C@_0DD@JFPMEIE@Generic?5scrypt?5code?5is?5broken?5?9@ 000000018002a6e8     scrypt_lib:crypto_scrypt.obj
 0002:00009720       ??_C@_09GPGAJHPD@?$CIunknown?$CJ@ 000000018002a720     scrypt_lib:warnp.obj
 0002:0000972c       ??_C@_02DKCKIIND@?$CFs@    000000018002a72c     scrypt_lib:warnp.obj
 0002:00009730       ??_C@_02LMMGGCAJ@?3?5@     000000018002a730     scrypt_lib:warnp.obj
 0002:00009734       ??_C@_01EEMJAFIK@?6@       000000018002a734     scrypt_lib:warnp.obj
 0002:00009738       __real@3e112e0be826d695    000000018002a738     scrypt_lib:scryptenc_cpuperf.obj
 0002:00009740       __real@3f50624dd2f1a9fc    000000018002a740     scrypt_lib:scryptenc_cpuperf.obj
 0002:00009748       __real@3fd0000000000000    000000018002a748     scrypt_wrapper:pickparams.obj
 0002:00009750       __real@3fe0000000000000    000000018002a750     scrypt_wrapper:memlimit.obj
 0002:00009758       __real@40e0000000000000    000000018002a758     scrypt_wrapper:pickparams.obj
 0002:00009760       __real@41cfffffff800000    000000018002a760     scrypt_wrapper:pickparams.obj
 0002:00009768       __real@43e0000000000000    000000018002a768     scrypt_wrapper:memlimit.obj
 0002:00009770       __real@bff0000000000000    000000018002a770     scrypt_params_async.obj
 0002:00009780       __xmm@36363636363636363636363636363636 000000018002a780     scrypt_lib:sha256.obj
 0002:00009790       __xmm@5c5c5c5c5c5c5c5c5c5c5c5c5c5c5c5c 000000018002a790     scrypt_lib:sha256.obj
 0002:00009810       ??_R4exception@std@@6B@    000000018002a810     libcpmt:xthrow.obj
 0002:00009838       ??_R3exception@std@@8      000000018002a838     libcpmt:xthrow.obj
 0002:00009850       ??_R2exception@std@@8      000000018002a850     libcpmt:xthrow.obj
 0002:00009860       ??_R1A@?0A@EA@exception@std@@8 000000018002a860     libcpmt:xthrow.obj
 0002:00009888       ??_R4bad_alloc@std@@6B@    000000018002a888     libcpmt:xthrow.obj
 0002:000098b0       ??_R3bad_alloc@std@@8      000000018002a8b0     libcpmt:xthrow.obj
 0002:000098c8       ??_R2bad_alloc@std@@8      000000018002a8c8     libcpmt:xthrow.obj
 0002:000098e0       ??_R1A@?0A@EA@bad_alloc@std@@8 000000018002a8e0     libcpmt:xthrow.obj
 0002:00009908       ??_R4logic_error@std@@6B@  000000018002a908     libcpmt:xthrow.obj
 0002:00009930       ??_R3logic_error@std@@8    000000018002a930     libcpmt:xthrow.obj
 0002:00009948       ??_R2logic_error@std@@8    000000018002a948     libcpmt:xthrow.obj
 0002:00009960       ??_R1A@?0A@EA@logic_error@std@@8 000000018002a960     libcpmt:xthrow.obj
 0002:00009988       ??_R4length_error@std@@6B@ 000000018002a988     libcpmt:xthrow.obj
 0002:000099b0       ??_R3length_error@std@@8   000000018002a9b0     libcpmt:xthrow.obj
 0002:000099c8       ??_R2length_error@std@@8   000000018002a9c8     libcpmt:xthrow.obj
 0002:000099e8       ??_R1A@?0A@EA@length_error@std@@8 000000018002a9e8     libcpmt:xthrow.obj
 0002:00009a10       ??_R4type_info@@6B@        000000018002aa10     LIBCMT:std_type_info_static.obj
 0002:00009a38       ??_R3type_info@@8          000000018002aa38     LIBCMT:std_type_info_static.obj
 0002:00009a50       ??_R2type_info@@8          000000018002aa50     LIBCMT:std_type_info_static.obj
 0002:00009a60       ??_R1A@?0A@EA@type_info@@8 000000018002aa60     LIBCMT:std_type_info_static.obj
 0002:00009a88       ??_R4bad_array_new_length@std@@6B@ 000000018002aa88     LIBCMT:throw_bad_alloc.obj
 0002:00009ab0       ??_R3bad_array_new_length@std@@8 000000018002aab0     LIBCMT:throw_bad_alloc.obj
 0002:00009ac8       ??_R2bad_array_new_length@std@@8 000000018002aac8     LIBCMT:throw_bad_alloc.obj
 0002:00009ae8       ??_R1A@?0A@EA@bad_array_new_length@std@@8 000000018002aae8     LIBCMT:throw_bad_alloc.obj
 0002:00009b10       ??_R4bad_exception@std@@6B@ 000000018002ab10     libvcruntime:frame.obj
 0002:00009b38       ??_R3bad_exception@std@@8  000000018002ab38     libvcruntime:frame.obj
 0002:00009b50       ??_R2bad_exception@std@@8  000000018002ab50     libvcruntime:frame.obj
 0002:00009b68       ??_R1A@?0A@EA@bad_exception@std@@8 000000018002ab68     libvcruntime:frame.obj
 0002:00009f68       __rtc_iaa                  000000018002af68     LIBCMT:initsect.obj
 0002:00009f70       __rtc_izz                  000000018002af70     LIBCMT:initsect.obj
 0002:00009f78       __rtc_taa                  000000018002af78     LIBCMT:initsect.obj
 0002:00009f80       __rtc_tzz                  000000018002af80     LIBCMT:initsect.obj
 0002:0000bb80       _CT??_R0?AVbad_alloc@std@@@8??0bad_alloc@std@@QEAA@AEBV01@@Z24 000000018002cb80     libcpmt:xthrow.obj
 0002:0000bba8       _CT??_R0?AVexception@std@@@8??0exception@std@@QEAA@AEBV01@@Z24 000000018002cba8     libcpmt:xthrow.obj
 0002:0000bbd0       _TI2?AVbad_alloc@std@@     000000018002cbd0     libcpmt:xthrow.obj
 0002:0000bbf0       _CTA2?AVbad_alloc@std@@    000000018002cbf0     libcpmt:xthrow.obj
 0002:0000bc08       _CT??_R0?AVlogic_error@std@@@8??0logic_error@std@@QEAA@AEBV01@@Z24 000000018002cc08     libcpmt:xthrow.obj
 0002:0000bc30       _TI3?AVlength_error@std@@  000000018002cc30     libcpmt:xthrow.obj
 0002:0000bc50       _CTA3?AVlength_error@std@@ 000000018002cc50     libcpmt:xthrow.obj
 0002:0000bc70       _CT??_R0?AVlength_error@std@@@8??0length_error@std@@QEAA@AEBV01@@Z24 000000018002cc70     libcpmt:xthrow.obj
 0002:0000bc98       _TI3?AVbad_array_new_length@std@@ 000000018002cc98     LIBCMT:throw_bad_alloc.obj
 0002:0000bcb8       _CTA3?AVbad_array_new_length@std@@ 000000018002ccb8     LIBCMT:throw_bad_alloc.obj
 0002:0000bcd8       _CT??_R0?AVbad_array_new_length@std@@@8??0bad_array_new_length@std@@QEAA@AEBV01@@Z24 000000018002ccd8     LIBCMT:throw_bad_alloc.obj
 0002:0000bd00       _TI2?AVbad_exception@std@@ 000000018002cd00     libvcruntime:frame.obj
 0002:0000bd20       _CTA2?AVbad_exception@std@@ 000000018002cd20     libvcruntime:frame.obj
 0002:0000bd38       _CT??_R0?AVbad_exception@std@@@8??0bad_exception@std@@QEAA@AEBV01@@Z24 000000018002cd38     libvcruntime:frame.obj
 0002:0000bd5c       __DELAY_IMPORT_DESCRIPTOR_node_exe 000000018002cd5c     node:node.exe
 0002:0000bd7c       __NULL_DELAY_IMPORT_DESCRIPTOR 000000018002cd7c     node:node.exe
 0002:0000bf18       \177node_NULL_THUNK_DATA_DLN 000000018002cf18     node:node.exe
 0002:0000cbe0       \177node_NULL_THUNK_DATA_DLB 000000018002dbe0     node:node.exe
 0002:0000cdb0       __IMPORT_DESCRIPTOR_KERNEL32 000000018002ddb0     kernel32:KERNEL32.dll
 0002:0000cdc4       __NULL_IMPORT_DESCRIPTOR   000000018002ddc4     kernel32:KERNEL32.dll
 0003:00000000       __scrt_native_dllmain_reason 000000018002f000     LIBCMT:utility.obj
 0003:00000008       __security_cookie_complement 000000018002f008     LIBCMT:gs_cookie.obj
 0003:00000010       __security_cookie          000000018002f010     LIBCMT:gs_cookie.obj
 0003:00000018       __isa_available            000000018002f018     LIBCMT:cpu_disp.obj
 0003:0000001c       __isa_enabled              000000018002f01c     LIBCMT:cpu_disp.obj
 0003:00000020       __memcpy_nt_iters          000000018002f020     LIBCMT:cpu_disp.obj
 0003:00000028       __memset_nt_iters          000000018002f028     LIBCMT:cpu_disp.obj
 0003:00000048       __abort_behavior           000000018002f048     libucrt:abort.obj
 0003:00000050       _iob                       000000018002f050     libucrt:_file.obj
 0003:00000170       __acrt_initial_locale_data 000000018002f170     libucrt:nlsdata.obj
 0003:000002c8       __acrt_initial_locale_pointers 000000018002f2c8     libucrt:nlsdata.obj
 0003:000002d8       __acrt_wide_c_locale_string 000000018002f2d8     libucrt:nlsdata.obj
 0003:000002e0       __badioinfo                000000018002f2e0     libucrt:ioinit.obj
 0003:00000330       __acrt_initial_multibyte_data 000000018002f330     libucrt:mbctype.obj
 0003:00000870       _pwctype                   000000018002f870     libucrt:ctype.obj
 0003:00000878       __globallocalestatus       000000018002f878     libucrt:glstatus.obj
 0003:00000880       __acrt_lconv_c             000000018002f880     libucrt:localeconv.obj
 0003:00000918       __acrt_lconv_static_decimal 000000018002f918     libucrt:localeconv.obj
 0003:0000091c       __acrt_lconv_static_W_decimal 000000018002f91c     libucrt:localeconv.obj
 0003:00000920       _lookuptrailbytes          000000018002f920     libucrt:read.obj
 0003:00000a40       _fltused                   000000018002fa40     LIBCMT:fltused.obj
 0003:00000a50       insecure_memzero_ptr       000000018002fa50     scrypt_lib:insecure_memzero.obj
 0003:00000b40       ??_R0?AVbad_alloc@std@@@8  000000018002fb40     libcpmt:xthrow.obj
 0003:00000b68       ??_R0?AVexception@std@@@8  000000018002fb68     libcpmt:xthrow.obj
 0003:00000b90       ??_R0?AVlogic_error@std@@@8 000000018002fb90     libcpmt:xthrow.obj
 0003:00000bb8       ??_R0?AVlength_error@std@@@8 000000018002fbb8     libcpmt:xthrow.obj
 0003:00000be0       ??_R0?AVtype_info@@@8      000000018002fbe0     LIBCMT:std_type_info_static.obj
 0003:00000c00       ??_R0?AVbad_array_new_length@std@@@8 000000018002fc00     LIBCMT:throw_bad_alloc.obj
 0003:00000c30       ??_R0?AVbad_exception@std@@@8 000000018002fc30     libvcruntime:frame.obj
 0003:00000c58       __imp_?GetCurrent@Isolate@v8@@SAPEAV12@XZ 000000018002fc58     node:node.exe
 0003:00000c60       __imp_??1HandleScope@v8@@QEAA@XZ 000000018002fc60     node:node.exe
 0003:00000c68       __imp_?Error@Exception@v8@@SA?AV?$Local@VValue@v8@@@2@V?$Local@VString@v8@@@2@@Z 000000018002fc68     node:node.exe
 0003:00000c70       __imp_?ToLocalEmpty@V8@v8@@CAXXZ 000000018002fc70     node:node.exe
 0003:00000c78       __imp_?Escape@EscapableHandleScope@v8@@AEAAPEAPEAVObject@internal@2@PEAPEAV342@@Z 000000018002fc78     node:node.exe
 0003:00000c80       __imp_??0EscapableHandleScope@v8@@QEAA@PEAVIsolate@1@@Z 000000018002fc80     node:node.exe
 0003:00000c88       __imp_?NewFromUtf8@String@v8@@SA?AV?$MaybeLocal@VString@v8@@@2@PEAVIsolate@2@PEBDW4NewStringType@2@H@Z 000000018002fc88     node:node.exe
 0003:00000c90       __imp_??1EscapableHandleScope@v8@@QEAA@XZ 000000018002fc90     node:node.exe
 0003:00000c98       __imp_uv_queue_work        000000018002fc98     node:node.exe
 0003:00000ca0       __imp_?Global@Context@v8@@QEAA?AV?$Local@VObject@v8@@@2@XZ 000000018002fca0     node:node.exe
 0003:00000ca8       __imp_?NewFromUnsigned@Integer@v8@@SA?AV?$Local@VInteger@v8@@@2@PEAVIsolate@2@I@Z 000000018002fca8     node:node.exe
 0003:00000cb0       __imp_?New@Integer@v8@@SA?AV?$Local@VInteger@v8@@@2@PEAVIsolate@2@H@Z 000000018002fcb0     node:node.exe
 0003:00000cb8       __imp_?GetCurrentContext@Isolate@v8@@QEAA?AV?$Local@VContext@v8@@@2@XZ 000000018002fcb8     node:node.exe
 0003:00000cc0       __imp_?CreateHandle@HandleScope@v8@@KAPEAPEAVObject@internal@2@PEAVIsolate@42@PEAV342@@Z 000000018002fcc0     node:node.exe
 0003:00000cc8       __imp_??0HandleScope@v8@@QEAA@PEAVIsolate@1@@Z 000000018002fcc8     node:node.exe
 0003:00000cd0       __imp_?DisposeGlobal@V8@v8@@CAXPEAPEAVObject@internal@2@@Z 000000018002fcd0     node:node.exe
 0003:00000cd8       __imp_?GlobalizeReference@V8@v8@@CAPEAPEAVObject@internal@2@PEAVIsolate@42@PEAPEAV342@@Z 000000018002fcd8     node:node.exe
 0003:00000ce0       __imp_?IntegerValue@Value@v8@@QEBA_JXZ 000000018002fce0     node:node.exe
 0003:00000ce8       __imp_?NumberValue@Value@v8@@QEBANXZ 000000018002fce8     node:node.exe
 0003:00000cf0       __imp_?ToInteger@Value@v8@@QEBA?AV?$MaybeLocal@VInteger@v8@@@2@V?$Local@VContext@v8@@@2@@Z 000000018002fcf0     node:node.exe
 0003:00000cf8       __imp_?New@Object@v8@@SA?AV?$Local@VObject@v8@@@2@PEAVIsolate@2@@Z 000000018002fcf8     node:node.exe
 0003:00000d00       __imp_?Set@Object@v8@@QEAA_NV?$Local@VValue@v8@@@2@0@Z 000000018002fd00     node:node.exe
 0003:00000d08       __imp_?EmitAsyncDestroy@node@@YAXPEAVIsolate@v8@@Uasync_context@1@@Z 000000018002fd08     node:node.exe
 0003:00000d10       __imp_?MakeCallback@node@@YA?AV?$MaybeLocal@VValue@v8@@@v8@@PEAVIsolate@3@V?$Local@VObject@v8@@@3@V?$Local@VFunction@v8@@@3@HPEAV?$Local@VValue@v8@@@3@Uasync_context@1@@Z 000000018002fd10     node:node.exe
 0003:00000d18       __imp_?EmitAsyncInit@node@@YA?AUasync_context@1@PEAVIsolate@v8@@V?$Local@VObject@v8@@@4@V?$Local@VString@v8@@@4@N@Z 000000018002fd18     node:node.exe
 0003:00000d20       __imp_?GetCurrentEventLoop@node@@YAPEAUuv_loop_s@@PEAVIsolate@v8@@@Z 000000018002fd20     node:node.exe
 0003:00000d28       __imp_?ThrowException@Isolate@v8@@QEAA?AV?$Local@VValue@v8@@@2@V32@@Z 000000018002fd28     node:node.exe
 0003:00000d30       __imp_?FromJustIsNothing@V8@v8@@CAXXZ 000000018002fd30     node:node.exe
 0003:00000d38       __imp_?Uint32Value@Value@v8@@QEBAIXZ 000000018002fd38     node:node.exe
 0003:00000d40       __imp_?Get@Object@v8@@QEAA?AV?$Local@VValue@v8@@@2@V32@@Z 000000018002fd40     node:node.exe
 0003:00000d48       __imp_?Get@Object@v8@@QEAA?AV?$MaybeLocal@VValue@v8@@@2@V?$Local@VContext@v8@@@2@V?$Local@VValue@v8@@@2@@Z 000000018002fd48     node:node.exe
 0003:00000d50       __imp_?Set@Object@v8@@QEAA?AV?$Maybe@_N@2@V?$Local@VContext@v8@@@2@V?$Local@VValue@v8@@@2@1@Z 000000018002fd50     node:node.exe
 0003:00000d58       __imp_?New@Buffer@node@@YA?AV?$MaybeLocal@VObject@v8@@@v8@@PEAVIsolate@4@_K@Z 000000018002fd58     node:node.exe
 0003:00000d60       __imp_?Data@Buffer@node@@YAPEADV?$Local@VValue@v8@@@v8@@@Z 000000018002fd60     node:node.exe
 0003:00000d68       __imp_?Length@Buffer@node@@YA_KV?$Local@VValue@v8@@@v8@@@Z 000000018002fd68     node:node.exe
 0003:00000d70       __imp_?ToObject@Value@v8@@QEBA?AV?$Local@VObject@v8@@@2@XZ 000000018002fd70     node:node.exe
 0003:00000d78       __imp_?Value@External@v8@@QEBAPEAXXZ 000000018002fd78     node:node.exe
 0003:00000d80       __imp_?New@External@v8@@SA?AV?$Local@VExternal@v8@@@2@PEAVIsolate@2@PEAX@Z 000000018002fd80     node:node.exe
 0003:00000d88       __imp_?CreateHandle@HandleScope@v8@@CAPEAPEAVObject@internal@2@PEAVHeapObject@42@PEAV342@@Z 000000018002fd88     node:node.exe
 0003:00000d90       __imp_?GetFunction@FunctionTemplate@v8@@QEAA?AV?$MaybeLocal@VFunction@v8@@@2@V?$Local@VContext@v8@@@2@@Z 000000018002fd90     node:node.exe
 0003:00000d98       __imp_?New@FunctionTemplate@v8@@SA?AV?$Local@VFunctionTemplate@v8@@@2@PEAVIsolate@2@P6AXAEBV?$FunctionCallbackInfo@VValue@v8@@@2@@ZV?$Local@VValue@v8@@@2@V?$Local@VSignature@v8@@@2@HW4ConstructorBehavior@2@W4SideEffectType@2@@Z 000000018002fd98     node:node.exe
 0003:00000da0       __imp_?SlowGetInternalField@Object@v8@@AEAA?AV?$Local@VValue@v8@@@2@H@Z 000000018002fda0     node:node.exe
 0003:00000da8       __imp_?SetInternalField@Object@v8@@QEAAXHV?$Local@VValue@v8@@@2@@Z 000000018002fda8     node:node.exe
 0003:00000db0       __imp_?SetInternalFieldCount@ObjectTemplate@v8@@QEAAXH@Z 000000018002fdb0     node:node.exe
 0003:00000db8       __imp_?NewInstance@ObjectTemplate@v8@@QEAA?AV?$MaybeLocal@VObject@v8@@@2@V?$Local@VContext@v8@@@2@@Z 000000018002fdb8     node:node.exe
 0003:00000dc0       __imp_?New@ObjectTemplate@v8@@SA?AV?$Local@VObjectTemplate@v8@@@2@PEAVIsolate@2@V?$Local@VFunctionTemplate@v8@@@2@@Z 000000018002fdc0     node:node.exe
 0003:00000dc8       __imp_node_module_register 000000018002fdc8     node:node.exe
 0003:00000dd0       \177node_NULL_THUNK_DATA_DLA 000000018002fdd0     node:node.exe
 0003:00000de0       __hmod__node_exe           000000018002fde0     node:node.exe
 0003:00000de8       ?_Raise_handler@std@@3P6AXAEBVexception@stdext@@@ZEA 000000018002fde8     libcpmt:raisehan.obj
 0003:00000df8       __scrt_current_native_startup_state 000000018002fdf8     LIBCMT:utility.obj
 0003:00000e00       __scrt_native_startup_lock 000000018002fe00     LIBCMT:utility.obj
 0003:000013b0       ?__type_info_root_node@@3U__type_info_node@@A 00000001800303b0     LIBCMT:tncleanup.obj
 0003:000013c0       ?_OptionsStorage@?1??__local_stdio_scanf_options@@9@4_KA 00000001800303c0     LIBCMT:default_local_stdio_options.obj
 0003:000013c8       __scrt_debugger_hook_flag  00000001800303c8     LIBCMT:utility_desktop.obj
 0003:000013cc       __favor                    00000001800303cc     LIBCMT:cpu_disp.obj
 0003:000013d0       ?__WinRTOutOfMemoryExceptionCallback@@3P6APEAXXZEA 00000001800303d0     libvcruntime:ehhelpers.obj
 0003:00001460       __pPurecall                0000000180030460     libvcruntime:purevirt_data.obj
 0003:00001498       ?pArgList@UnDecorator@@0PEAVReplicator@@EA 0000000180030498     libvcruntime:undname.obj
 0003:000014a0       ?pZNameList@UnDecorator@@0PEAVReplicator@@EA 00000001800304a0     libvcruntime:undname.obj
 0003:000014a8       ?pTemplateArgList@UnDecorator@@0PEAVReplicator@@EA 00000001800304a8     libvcruntime:undname.obj
 0003:000014b0       ?gName@UnDecorator@@0PEBDEB 00000001800304b0     libvcruntime:undname.obj
 0003:000014b8       ?name@UnDecorator@@0PEBDEB 00000001800304b8     libvcruntime:undname.obj
 0003:000014c0       ?disableFlags@UnDecorator@@0KA 00000001800304c0     libvcruntime:undname.obj
 0003:000014c4       ?fExplicitTemplateParams@UnDecorator@@0_NA 00000001800304c4     libvcruntime:undname.obj
 0003:000014c5       ?fGetTemplateArgumentList@UnDecorator@@0_NA 00000001800304c5     libvcruntime:undname.obj
 0003:000014c8       ?m_pGetParameter@UnDecorator@@0P6APEADJ@ZEA 00000001800304c8     libvcruntime:undname.obj
 0003:000014d0       ?m_CHPENameOffset@UnDecorator@@0KA 00000001800304d0     libvcruntime:undname.obj
 0003:000014d4       ?m_recursionLevel@UnDecorator@@0KA 00000001800304d4     libvcruntime:undname.obj
 0003:00001548       _nstream                   0000000180030548     libucrt:_file.obj
 0003:00001550       __piob                     0000000180030550     libucrt:_file.obj
 0003:00001558       _cflush                    0000000180030558     libucrt:_file.obj
 0003:00001578       ?c_exit_complete@?1???R<lambda_6e4b09c48022b2350581041d5f6b0c4c>@@QEBA@XZ@4_NA 0000000180030578     libucrt:exit.obj
 0003:00001688       _environ_table             0000000180030688     libucrt:environment_initialization.obj
 0003:00001690       _wenviron_table            0000000180030690     libucrt:environment_initialization.obj
 0003:00001698       __dcrt_initial_wide_environment 0000000180030698     libucrt:environment_initialization.obj
 0003:000016a0       __dcrt_initial_narrow_environment 00000001800306a0     libucrt:environment_initialization.obj
 0003:000016a8       __acrt_atexit_table        00000001800306a8     libucrt:onexit.obj
 0003:000016c0       __acrt_at_quick_exit_table 00000001800306c0     libucrt:onexit.obj
 0003:00001700       __acrt_locale_changed_data 0000000180030700     libucrt:wsetlocale.obj
 0003:00001708       __acrt_current_locale_data 0000000180030708     libucrt:nlsdata.obj
 0003:000018c0       __pioinfo                  00000001800308c0     libucrt:ioinit.obj
 0003:00001cc0       _nhandle                   0000000180030cc0     libucrt:ioinit.obj
 0003:00001cd8       __acrt_stdout_buffer       0000000180030cd8     libucrt:_sftbuf.obj
 0003:00001ce0       __acrt_stderr_buffer       0000000180030ce0     libucrt:_sftbuf.obj
 0003:00001f30       _mbctype                   0000000180030f30     libucrt:mbctype.obj
 0003:00001f38       _mbcasemap                 0000000180030f38     libucrt:mbctype.obj
 0003:00001f40       __acrt_current_multibyte_data 0000000180030f40     libucrt:mbctype.obj
 0003:00001f50       _pgmptr                    0000000180030f50     libucrt:argv_data.obj
 0003:00001f58       __argc                     0000000180030f58     libucrt:argv_data.obj
 0003:00001f60       __argv                     0000000180030f60     libucrt:argv_data.obj
 0003:00001f68       __wargv                    0000000180030f68     libucrt:argv_data.obj
 0003:00001f70       _acmdln                    0000000180030f70     libucrt:argv_data.obj
 0003:00001f78       _wcmdln                    0000000180030f78     libucrt:argv_data.obj
 0003:00001f80       __acrt_heap                0000000180030f80     libucrt:heap_handle.obj
 0003:00001f94       __acrt_lconv_static_null   0000000180030f94     libucrt:localeconv.obj
 0003:00001f98       __acrt_lconv_static_W_null 0000000180030f98     libucrt:localeconv.obj
 0003:00001fa8       __fma3_is_available        0000000180030fa8     libucrt:fma3_available.obj
 0003:00001fac       __use_fma3_lib             0000000180030fac     libucrt:fma3_available.obj
 0003:00001fb0       ?DloadKernel32@@3PEAUHINSTANCE__@@EA 0000000180030fb0     DelayImp:delayhlp.obj
 0003:00001fb8       ?DloadAcquireSRWLockExclusive@@3P6AXPEA_K@ZEA 0000000180030fb8     DelayImp:delayhlp.obj
 0003:00001fc0       ?DloadReleaseSRWLockExclusive@@3P6AXPEA_K@ZEA 0000000180030fc0     DelayImp:delayhlp.obj
 0003:00001fc8       ?DloadSrwLock@@3_KA        0000000180030fc8     DelayImp:delayhlp.obj
 0003:00001fd0       ?DloadSectionLockCount@@3KA 0000000180030fd0     DelayImp:delayhlp.obj
 0003:00001fd4       ?DloadSectionOldProtection@@3KA 0000000180030fd4     DelayImp:delayhlp.obj
 0003:00001fd8       ?DloadSectionCommitPermanent@@3KA 0000000180030fd8     DelayImp:delayhlp.obj
 0003:00001ff0       __scrt_ucrt_dll_is_in_use  0000000180030ff0     <common>
 0003:00001ff8       __dyn_tls_init_callback    0000000180030ff8     <common>
 0003:00002000       ?_OptionsStorage@?1??__local_stdio_printf_options@@9@9 0000000180031000     <common>

 entry point at        0001:00008568

 Static symbols

 0000:fffc9000       .debug$S                   0000000180000000     scrypt.exp
 0000:fffc9000       .debug$S                   0000000180000000     kernel32:KERNEL32.dll
 0000:fffc9000       .debug$S                   0000000180000000     kernel32:KERNEL32.dll
 0000:fffc9000       .debug$S                   0000000180000000     kernel32:KERNEL32.dll
 0000:fffc9000       .debug$S                   0000000180000000     kernel32:KERNEL32.dll
 0000:fffc9000       .debug$S                   0000000180000000     kernel32:KERNEL32.dll
 0000:fffc9000       .debug$S                   0000000180000000     kernel32:KERNEL32.dll
 0000:fffc9000       .debug$S                   0000000180000000     kernel32:KERNEL32.dll
 0000:fffc9000       .debug$S                   0000000180000000     kernel32:KERNEL32.dll
 0000:fffc9000       .debug$S                   0000000180000000     kernel32:KERNEL32.dll
 0000:fffc9000       .debug$S                   0000000180000000     kernel32:KERNEL32.dll
 0000:fffc9000       .debug$S                   0000000180000000     kernel32:KERNEL32.dll
 0000:fffc9000       .debug$S                   0000000180000000     kernel32:KERNEL32.dll
 0000:fffc9000       .debug$S                   0000000180000000     kernel32:KERNEL32.dll
 0000:fffc9000       .debug$S                   0000000180000000     kernel32:KERNEL32.dll
 0000:fffc9000       .debug$S                   0000000180000000     kernel32:KERNEL32.dll
 0000:fffc9000       .debug$S                   0000000180000000     kernel32:KERNEL32.dll
 0000:fffc9000       .debug$S                   0000000180000000     kernel32:KERNEL32.dll
 0000:fffc9000       .debug$S                   0000000180000000     kernel32:KERNEL32.dll
 0000:fffc9000       .debug$S                   0000000180000000     kernel32:KERNEL32.dll
 0000:fffc9000       .debug$S                   0000000180000000     kernel32:KERNEL32.dll
 0000:fffc9000       .debug$S                   0000000180000000     kernel32:KERNEL32.dll
 0000:fffc9000       .debug$S                   0000000180000000     kernel32:KERNEL32.dll
 0000:fffc9000       .debug$S                   0000000180000000     kernel32:KERNEL32.dll
 0000:fffc9000       .debug$S                   0000000180000000     kernel32:KERNEL32.dll
 0000:fffc9000       .debug$S                   0000000180000000     kernel32:KERNEL32.dll
 0000:fffc9000       .debug$S                   0000000180000000     kernel32:KERNEL32.dll
 0000:fffc9000       .debug$S                   0000000180000000     kernel32:KERNEL32.dll
 0000:fffc9000       .debug$S                   0000000180000000     kernel32:KERNEL32.dll
 0000:fffc9000       .debug$S                   0000000180000000     kernel32:KERNEL32.dll
 0000:fffc9000       .debug$S                   0000000180000000     kernel32:KERNEL32.dll
 0000:fffc9000       .debug$S                   0000000180000000     kernel32:KERNEL32.dll
 0000:fffc9000       .debug$S                   0000000180000000     kernel32:KERNEL32.dll
 0000:fffc9000       .debug$S                   0000000180000000     kernel32:KERNEL32.dll
 0000:fffc9000       .debug$S                   0000000180000000     kernel32:KERNEL32.dll
 0000:fffc9000       .debug$S                   0000000180000000     kernel32:KERNEL32.dll
 0000:fffc9000       .debug$S                   0000000180000000     kernel32:KERNEL32.dll
 0000:fffc9000       .debug$S                   0000000180000000     kernel32:KERNEL32.dll
 0000:fffc9000       .debug$S                   0000000180000000     kernel32:KERNEL32.dll
 0000:fffc9000       .debug$S                   0000000180000000     kernel32:KERNEL32.dll
 0000:fffc9000       .debug$S                   0000000180000000     kernel32:KERNEL32.dll
 0000:fffc9000       .debug$S                   0000000180000000     kernel32:KERNEL32.dll
 0000:fffc9000       .debug$S                   0000000180000000     kernel32:KERNEL32.dll
 0000:fffc9000       .debug$S                   0000000180000000     kernel32:KERNEL32.dll
 0000:fffc9000       .debug$S                   0000000180000000     kernel32:KERNEL32.dll
 0000:fffc9000       .debug$S                   0000000180000000     kernel32:KERNEL32.dll
 0000:fffc9000       .debug$S                   0000000180000000     kernel32:KERNEL32.dll
 0000:fffc9000       .debug$S                   0000000180000000     kernel32:KERNEL32.dll
 0000:fffc9000       .debug$S                   0000000180000000     kernel32:KERNEL32.dll
 0000:fffc9000       .debug$S                   0000000180000000     kernel32:KERNEL32.dll
 0000:fffc9000       .debug$S                   0000000180000000     kernel32:KERNEL32.dll
 0000:fffc9000       .debug$S                   0000000180000000     kernel32:KERNEL32.dll
 0000:fffc9000       .debug$S                   0000000180000000     kernel32:KERNEL32.dll
 0000:fffc9000       .debug$S                   0000000180000000     kernel32:KERNEL32.dll
 0000:fffc9000       .debug$S                   0000000180000000     kernel32:KERNEL32.dll
 0000:fffc9000       .debug$S                   0000000180000000     kernel32:KERNEL32.dll
 0000:fffc9000       .debug$S                   0000000180000000     kernel32:KERNEL32.dll
 0000:fffc9000       .debug$S                   0000000180000000     kernel32:KERNEL32.dll
 0000:fffc9000       .debug$S                   0000000180000000     kernel32:KERNEL32.dll
 0000:fffc9000       .debug$S                   0000000180000000     kernel32:KERNEL32.dll
 0000:fffc9000       .debug$S                   0000000180000000     kernel32:KERNEL32.dll
 0000:fffc9000       .debug$S                   0000000180000000     kernel32:KERNEL32.dll
 0000:fffc9000       .debug$S                   0000000180000000     kernel32:KERNEL32.dll
 0000:fffc9000       .debug$S                   0000000180000000     kernel32:KERNEL32.dll
 0000:fffc9000       .debug$S                   0000000180000000     kernel32:KERNEL32.dll
 0000:fffc9000       .debug$S                   0000000180000000     kernel32:KERNEL32.dll
 0000:fffc9000       .debug$S                   0000000180000000     kernel32:KERNEL32.dll
 0000:fffc9000       .debug$S                   0000000180000000     kernel32:KERNEL32.dll
 0000:fffc9000       .debug$S                   0000000180000000     kernel32:KERNEL32.dll
 0000:fffc9000       .debug$S                   0000000180000000     kernel32:KERNEL32.dll
 0000:fffc9000       .debug$S                   0000000180000000     kernel32:KERNEL32.dll
 0000:fffc9000       .debug$S                   0000000180000000     kernel32:KERNEL32.dll
 0000:fffc9000       .debug$S                   0000000180000000     kernel32:KERNEL32.dll
 0000:fffc9000       .debug$S                   0000000180000000     kernel32:KERNEL32.dll
 0000:fffc9000       .debug$S                   0000000180000000     kernel32:KERNEL32.dll
 0000:fffc9000       .debug$S                   0000000180000000     kernel32:KERNEL32.dll
 0000:fffc9000       .debug$S                   0000000180000000     kernel32:KERNEL32.dll
 0000:fffc9000       .debug$S                   0000000180000000     kernel32:KERNEL32.dll
 0000:fffc9000       .debug$S                   0000000180000000     kernel32:KERNEL32.dll
 0000:fffc9000       .debug$S                   0000000180000000     kernel32:KERNEL32.dll
 0000:fffc9000       .debug$S                   0000000180000000     kernel32:KERNEL32.dll
 0000:fffc9000       .debug$S                   0000000180000000     kernel32:KERNEL32.dll
 0000:fffc9000       .debug$S                   0000000180000000     kernel32:KERNEL32.dll
 0000:fffc9000       .debug$S                   0000000180000000     kernel32:KERNEL32.dll
 0000:fffc9000       .debug$S                   0000000180000000     kernel32:KERNEL32.dll
 0000:fffc9000       .debug$S                   0000000180000000     kernel32:KERNEL32.dll
 0000:fffc9000       .debug$S                   0000000180000000     kernel32:KERNEL32.dll
 0000:fffc9000       .debug$S                   0000000180000000     kernel32:KERNEL32.dll
 0000:fffc9000       .debug$S                   0000000180000000     kernel32:KERNEL32.dll
 0000:fffc9000       .debug$S                   0000000180000000     kernel32:KERNEL32.dll
 0000:fffc9000       .debug$S                   0000000180000000     kernel32:KERNEL32.dll
 0000:fffc9000       .debug$S                   0000000180000000     kernel32:KERNEL32.dll
 0000:fffc9000       .debug$S                   0000000180000000     node:node.exe
 0000:fffc9000       .debug$S                   0000000180000000     node:node.exe
 0000:fffc9000       .debug$S                   0000000180000000     node:node.exe
 0000:fffc9000       .debug$S                   0000000180000000     node:node.exe
 0000:fffc9000       .debug$S                   0000000180000000     node:node.exe
 0000:fffc9000       .debug$S                   0000000180000000     node:node.exe
 0000:fffc9000       .debug$S                   0000000180000000     node:node.exe
 0000:fffc9000       .debug$S                   0000000180000000     node:node.exe
 0000:fffc9000       .debug$S                   0000000180000000     node:node.exe
 0000:fffc9000       .debug$S                   0000000180000000     node:node.exe
 0000:fffc9000       .debug$S                   0000000180000000     node:node.exe
 0000:fffc9000       .debug$S                   0000000180000000     node:node.exe
 0000:fffc9000       .debug$S                   0000000180000000     node:node.exe
 0000:fffc9000       .debug$S                   0000000180000000     node:node.exe
 0000:fffc9000       .debug$S                   0000000180000000     node:node.exe
 0000:fffc9000       .debug$S                   0000000180000000     node:node.exe
 0000:fffc9000       .debug$S                   0000000180000000     node:node.exe
 0000:fffc9000       .debug$S                   0000000180000000     node:node.exe
 0000:fffc9000       .debug$S                   0000000180000000     node:node.exe
 0000:fffc9000       .debug$S                   0000000180000000     node:node.exe
 0000:fffc9000       .debug$S                   0000000180000000     node:node.exe
 0000:fffc9000       .debug$S                   0000000180000000     node:node.exe
 0000:fffc9000       .debug$S                   0000000180000000     node:node.exe
 0000:fffc9000       .debug$S                   0000000180000000     node:node.exe
 0000:fffc9000       .debug$S                   0000000180000000     node:node.exe
 0000:fffc9000       .debug$S                   0000000180000000     node:node.exe
 0000:fffc9000       .debug$S                   0000000180000000     node:node.exe
 0000:fffc9000       .debug$S                   0000000180000000     node:node.exe
 0000:fffc9000       .debug$S                   0000000180000000     node:node.exe
 0000:fffc9000       .debug$S                   0000000180000000     node:node.exe
 0000:fffc9000       .debug$S                   0000000180000000     node:node.exe
 0000:fffc9000       .debug$S                   0000000180000000     node:node.exe
 0000:fffc9000       .debug$S                   0000000180000000     node:node.exe
 0000:fffc9000       .debug$S                   0000000180000000     node:node.exe
 0000:fffc9000       .debug$S                   0000000180000000     node:node.exe
 0000:fffc9000       .debug$S                   0000000180000000     node:node.exe
 0000:fffc9000       .debug$S                   0000000180000000     node:node.exe
 0000:fffc9000       .debug$S                   0000000180000000     node:node.exe
 0000:fffc9000       .debug$S                   0000000180000000     node:node.exe
 0000:fffc9000       .debug$S                   0000000180000000     node:node.exe
 0000:fffc9000       .debug$S                   0000000180000000     node:node.exe
 0000:fffc9000       .debug$S                   0000000180000000     node:node.exe
 0000:fffc9000       .debug$S                   0000000180000000     node:node.exe
 0000:fffc9000       .debug$S                   0000000180000000     node:node.exe
 0000:fffc9000       .debug$S                   0000000180000000     node:node.exe
 0000:fffc9000       .debug$S                   0000000180000000     node:node.exe
 0000:fffc9000       .debug$S                   0000000180000000     node:node.exe
 0000:fffc9000       .debug$S                   0000000180000000     node:node.exe
 0000:fffc9000       .debug$S                   0000000180000000     node:node.exe
 0000:fffc9000       .debug$S                   0000000180000000     node:node.exe
 0000:fffc9000       .debug$S                   0000000180000000     node:node.exe
 0001:00000120       ?ScryptErrorDescr@?A0x816004c9@@YAPEBDI@Z 0000000180001120 f   scrypt_common.obj
 0001:0000046c       $LN204                     000000018000146c     scrypt_common.obj
 0001:000032e0       ?FunctionCallbackWrapper@imp@Nan@@YAXAEBV?$FunctionCallbackInfo@VValue@v8@@@v8@@@Z 00000001800042e0 f   scrypt_node.obj
 0001:00003b60       _register_scrypt           0000000180004b60 f   scrypt_node.obj
 0001:00003d10       ?load_exe_hook@@YAP6A_JXZIPEAUDelayLoadInfo@@@Z 0000000180004d10 f   win_delay_load_hook.obj
 0001:000046f0       be32dec_vect               00000001800056f0 f   scrypt_lib:sha256.obj
 0001:00004930       SHA256_Transform           0000000180005930 f   scrypt_lib:sha256.obj
 0001:00006e70       _crypto_scrypt             0000000180007e70 f   scrypt_lib:crypto_scrypt.obj
 0001:00007220       insecure_memzero_func      0000000180008220 f   scrypt_lib:insecure_memzero.obj
 0001:00007360       salsa20_8                  0000000180008360 f   scrypt_lib:crypto_scrypt_smix.obj
 0001:000076b0       blockmix_salsa8            00000001800086b0 f   scrypt_lib:crypto_scrypt_smix.obj
 0001:000081d0       $$000000                   00000001800091d0     LIBCMT:amdsecgs.obj
 0001:00008248       ?dllmain_crt_dispatch@@YAHQEAUHINSTANCE__@@KQEAX@Z 0000000180009248 f   LIBCMT:dll_dllmain.obj
 0001:00008298       ?dllmain_crt_process_attach@@YAHQEAUHINSTANCE__@@QEAX@Z 0000000180009298 f   LIBCMT:dll_dllmain.obj
 0001:000083b0       ?dllmain_crt_process_detach@@YAH_N@Z 00000001800093b0 f   LIBCMT:dll_dllmain.obj
 0001:00008434       ?dllmain_dispatch@@YAHQEAUHINSTANCE__@@KQEAX@Z 0000000180009434 f   LIBCMT:dll_dllmain.obj
 0001:00008ab8       capture_current_context    0000000180009ab8 f   LIBCMT:gs_report.obj
 0001:00008b28       capture_previous_context   0000000180009b28 f   LIBCMT:gs_report.obj
 0001:00009e20       $$000000                   000000018000ae20     libvcruntime:memset.obj
 0001:0000a288       ??$BuildCatchObjectHelperInternal@V__FrameHandler4@@@@YAHPEAUEHExceptionRecord@@PEAXPEAUHandlerType4@FH4@@PEBU_s_CatchableType@@@Z 000000018000b288 f   libvcruntime:frame.obj
 0001:0000a48c       ??$BuildCatchObjectInternal@V__FrameHandler4@@@@YAXPEAUEHExceptionRecord@@PEAXPEAUHandlerType4@FH4@@PEBU_s_CatchableType@@@Z 000000018000b48c f   libvcruntime:frame.obj
 0001:0000a550       ??$CatchIt@V__FrameHandler4@@@@YAXPEAUEHExceptionRecord@@PEA_KPEAU_CONTEXT@@PEAU_xDISPATCHER_CONTEXT@@PEAUFuncInfo4@FH4@@PEAUHandlerType4@4@PEBU_s_CatchableType@@PEAUTryBlockMapEntry4@4@H1EE@Z 000000018000b550 f   libvcruntime:frame.obj
 0001:0000a624       ??$FindHandler@V__FrameHandler4@@@@YAXPEAUEHExceptionRecord@@PEA_KPEAU_CONTEXT@@PEAU_xDISPATCHER_CONTEXT@@PEAUFuncInfo4@FH4@@EH1@Z 000000018000b624 f   libvcruntime:frame.obj
 0001:0000ab34       ??$FindHandlerForForeignException@V__FrameHandler4@@@@YAXPEAUEHExceptionRecord@@PEA_KPEAU_CONTEXT@@PEAU_xDISPATCHER_CONTEXT@@PEAUFuncInfo4@FH4@@HH1@Z 000000018000bb34 f   libvcruntime:frame.obj
 0001:0000b8e8       ?ExFilterRethrow@@YAHPEAU_EXCEPTION_POINTERS@@PEAUEHExceptionRecord@@PEAH@Z 000000018000c8e8 f   libvcruntime:frame.obj
 0001:0000b970       ?ExFilterRethrowFH4@@YAHPEAU_EXCEPTION_POINTERS@@PEAUEHExceptionRecord@@HPEAH@Z 000000018000c970 f   libvcruntime:frame.obj
 0001:0000bc74       ?IsInExceptionSpec@@YAEPEAUEHExceptionRecord@@PEBU_s_ESTypeList@@@Z 000000018000cc74 f   libvcruntime:frame.obj
 0001:0000bd64       ?Is_bad_exception_allowed@@YAEPEBU_s_ESTypeList@@@Z 000000018000cd64 f   libvcruntime:frame.obj
 0001:0000c040       $$000000                   000000018000d040     libvcruntime:notify.obj
 0001:0000c128       ?try_get_function@@YAPEAXW4function_id@?A0x87d18907@@QEBDQEBW4module_id@2@2@Z 000000018000d128 f   libvcruntime:winapi_downlevel.obj
 0001:0000c420       $$000000                   000000018000d420     libvcruntime:handlers.obj
 0001:0000c530       $$000000                   000000018000d530     libvcruntime:memcpy.obj
 0001:0000cc8c       ??$common_assert_to_message_box@_W@@YAXQEB_W0IQEAX@Z 000000018000dc8c f   libucrt:assert.obj
 0001:0000cd50       ??$common_assert_to_message_box_build_string@_W@@YAXQEA_W_KQEB_W2IQEAX@Z 000000018000dd50 f   libucrt:assert.obj
 0001:0000d254       ??$common_assert_to_stderr@_W@@YAXQEB_W0I@Z 000000018000e254 f   libucrt:assert.obj
 0001:0000d3c4       ?get_assert_format@@YAPEB_W_W@Z 000000018000e3c4 f   libucrt:assert.obj
 0001:0000d974       ??$?RV<lambda_676bd5779251ec186b530f0a904b4b35>@@AEAV<lambda_b579ea784fd840951dfbcbdaebf709fd>@@V<lambda_10027885da78ada7fb00668d7e2e96b5>@@@?$__crt_seh_guarded_call@H@@QEAAH$$QEAV<lambda_676bd5779251ec186b530f0a904b4b35>@@AEAV<lambda_b579ea784fd840951dfbcbdaebf709fd>@@$$QEAV<lambda_10027885da78ada7fb00668d7e2e96b5>@@@Z 000000018000e974 f   libucrt:output.obj
 0001:0000d9b4       ??$?RV<lambda_fe5404e9642edbb7c8ae71e1dcfa4018>@@AEAV<lambda_36eeb330e99a4f0bf8a7da86d0894cb9>@@V<lambda_2fa474834de80dc12f7a3c6eddd7a366>@@@?$__crt_seh_guarded_call@H@@QEAAH$$QEAV<lambda_fe5404e9642edbb7c8ae71e1dcfa4018>@@AEAV<lambda_36eeb330e99a4f0bf8a7da86d0894cb9>@@$$QEAV<lambda_2fa474834de80dc12f7a3c6eddd7a366>@@@Z 000000018000e9b4 f   libucrt:output.obj
 0001:0000d9f4       ??$common_vsprintf@Vstandard_base@__crt_stdio_output@@_W@@YAH_KQEA_W0QEB_WQEAU__crt_locale_pointers@@QEAD@Z 000000018000e9f4 f   libucrt:output.obj
 0001:0000e158       ??R<lambda_36eeb330e99a4f0bf8a7da86d0894cb9>@@QEBAHXZ 000000018000f158 f   libucrt:output.obj
 0001:0000e288       ??R<lambda_b579ea784fd840951dfbcbdaebf709fd>@@QEBAHXZ 000000018000f288 f   libucrt:output.obj
 0001:000110f0       ??$?RV<lambda_d80eeec6fff315bfe5c115232f3240e3>@@AEAV<lambda_6e4b09c48022b2350581041d5f6b0c4c>@@V<lambda_2358e3775559c9db80273638284d5e45>@@@?$__crt_seh_guarded_call@X@@QEAAX$$QEAV<lambda_d80eeec6fff315bfe5c115232f3240e3>@@AEAV<lambda_6e4b09c48022b2350581041d5f6b0c4c>@@$$QEAV<lambda_2358e3775559c9db80273638284d5e45>@@@Z 00000001800120f0 f   libucrt:exit.obj
 0001:00011128       ??R<lambda_6e4b09c48022b2350581041d5f6b0c4c>@@QEBA@XZ 0000000180012128 f   libucrt:exit.obj
 0001:000111ec       ?atexit_exception_filter@@YAHK@Z 00000001800121ec f   libucrt:exit.obj
 0001:000111f8       ?common_exit@@YAXHW4_crt_exit_cleanup_mode@@W4_crt_exit_return_mode@@@Z 00000001800121f8 f   libucrt:exit.obj
 0001:000112b4       ?exit_or_terminate_process@@YAXI@Z 00000001800122b4 f   libucrt:exit.obj
 0001:00011300       ?try_cor_exit_process@@YAXI@Z 0000000180012300 f   libucrt:exit.obj
 0001:00011388       ??$parse_command_line@D@@YAXPEADPEAPEAD0PEA_K2@Z 0000000180012388 f   libucrt:argv_parsing.obj
 0001:00011734       ??$common_initialize_environment_nolock@D@@YAHXZ 0000000180012734 f   libucrt:environment_initialization.obj
 0001:000117a0       ??$create_environment@D@@YAQEAPEADQEAD@Z 00000001800127a0 f   libucrt:environment_initialization.obj
 0001:000118a8       ??$free_environment@D@@YAXQEAPEAD@Z 00000001800128a8 f   libucrt:environment_initialization.obj
 0001:000118a8       ??$free_environment@_W@@YAXQEAPEA_W@Z 00000001800128a8 f   libucrt:environment_initialization.obj
 0001:000118ec       ??$uninitialize_environment_internal@D@@YAXAEAPEAPEAD@Z 00000001800128ec f   libucrt:environment_initialization.obj
 0001:00011908       ??$uninitialize_environment_internal@_W@@YAXAEAPEAPEA_W@Z 0000000180012908 f   libucrt:environment_initialization.obj
 0001:00011964       ??$?RV<lambda_7777bce6b2f8c936911f934f8298dc43>@@AEAV<lambda_f03950bc5685219e0bcd2087efbe011e>@@V<lambda_3883c3dff614d5e0c5f61bb1ac94921c>@@@?$__crt_seh_guarded_call@H@@QEAAH$$QEAV<lambda_7777bce6b2f8c936911f934f8298dc43>@@AEAV<lambda_f03950bc5685219e0bcd2087efbe011e>@@$$QEAV<lambda_3883c3dff614d5e0c5f61bb1ac94921c>@@@Z 0000000180012964 f   libucrt:onexit.obj
 0001:000119a0       ??R<lambda_f03950bc5685219e0bcd2087efbe011e>@@QEBAHXZ 00000001800129a0 f   libucrt:onexit.obj
 0001:00011b1c       initialize_global_variables 0000000180012b1c f   libucrt:initialization.obj
 0001:00011b30       initialize_c               0000000180012b30 f   libucrt:initialization.obj
 0001:00011b54       initialize_environment     0000000180012b54 f   libucrt:initialization.obj
 0001:00011b54       initialize_global_state_isolation 0000000180012b54 f   libucrt:initialization.obj
 0001:00011b54       report_memory_leaks        0000000180012b54 f   libucrt:initialization.obj
 0001:00011b54       uninitialize_c             0000000180012b54 f   libucrt:initialization.obj
 0001:00011b54       uninitialize_global_state_isolation 0000000180012b54 f   libucrt:initialization.obj
 0001:00011b58       uninitialize_environment   0000000180012b58 f   libucrt:initialization.obj
 0001:00011b68       initialize_pointers        0000000180012b68 f   libucrt:initialization.obj
 0001:00011ba8       uninitialize_vcruntime     0000000180012ba8 f   libucrt:initialization.obj
 0001:00011bb0       uninitialize_allocated_memory 0000000180012bb0 f   libucrt:initialization.obj
 0001:00011bf0       uninitialize_allocated_io_buffers 0000000180012bf0 f   libucrt:initialization.obj
 0001:00012780       $$000000                   0000000180013780     libucrt:strncmp.obj
 0001:0001283c       ??$?RV<lambda_0ae27a3a962d80f24befdcbee591983d>@@AEAV<lambda_8d0ee55de4b1038c4002e0adecdf1839>@@V<lambda_dc504788e8f1664fe9b84e20bfb512f2>@@@?$__crt_seh_guarded_call@X@@QEAAX$$QEAV<lambda_0ae27a3a962d80f24befdcbee591983d>@@AEAV<lambda_8d0ee55de4b1038c4002e0adecdf1839>@@$$QEAV<lambda_dc504788e8f1664fe9b84e20bfb512f2>@@@Z 000000018001383c f   libucrt:per_thread_data.obj
 0001:0001287c       ??$?RV<lambda_2d41944a1d46af3157314b8a01080d33>@@AEAV<lambda_8f455de75cd7d7f24b4096f044d8b9e6>@@V<lambda_aa500f224e6afead328df44964fe2772>@@@?$__crt_seh_guarded_call@X@@QEAAX$$QEAV<lambda_2d41944a1d46af3157314b8a01080d33>@@AEAV<lambda_8f455de75cd7d7f24b4096f044d8b9e6>@@$$QEAV<lambda_aa500f224e6afead328df44964fe2772>@@@Z 000000018001387c f   libucrt:per_thread_data.obj
 0001:000128bc       ??$?RV<lambda_aa87e3671a710a21b5dc78c0bdf72e11>@@AEAV<lambda_92619d2358a28f41a33ba319515a20b9>@@V<lambda_6992ecaafeb10aed2b74cb1fae11a551>@@@?$__crt_seh_guarded_call@X@@QEAAX$$QEAV<lambda_aa87e3671a710a21b5dc78c0bdf72e11>@@AEAV<lambda_92619d2358a28f41a33ba319515a20b9>@@$$QEAV<lambda_6992ecaafeb10aed2b74cb1fae11a551>@@@Z 00000001800138bc f   libucrt:per_thread_data.obj
 0001:00012904       ??$?RV<lambda_f2e299630e499de9f9a165e60fcd3db5>@@AEAV<lambda_2ae9d31cdba2644fcbeaf08da7c24588>@@V<lambda_40d01ff24d0e7b3814fdbdcee8eab3c7>@@@?$__crt_seh_guarded_call@X@@QEAAX$$QEAV<lambda_f2e299630e499de9f9a165e60fcd3db5>@@AEAV<lambda_2ae9d31cdba2644fcbeaf08da7c24588>@@$$QEAV<lambda_40d01ff24d0e7b3814fdbdcee8eab3c7>@@@Z 0000000180013904 f   libucrt:per_thread_data.obj
 0001:00012964       ?construct_ptd_array@@YAXQEAU__acrt_ptd@@@Z 0000000180013964 f   libucrt:per_thread_data.obj
 0001:00012a34       ?destroy_fls@@YAXPEAX@Z    0000000180013a34 f   libucrt:per_thread_data.obj
 0001:00012a54       ?destroy_ptd_array@@YAXQEAU__acrt_ptd@@@Z 0000000180013a54 f   libucrt:per_thread_data.obj
 0001:00012b4c       ?replace_current_thread_locale_nolock@@YAXQEAU__acrt_ptd@@QEAU__crt_locale_data@@@Z 0000000180013b4c f   libucrt:per_thread_data.obj
 0001:00013044       ??$common_xtox@K_W@@YAHKQEA_W_KI_N@Z 0000000180014044 f   libucrt:xtoa.obj
 0001:00013118       ??$common_xtox_s@K_W@@YAHKQEA_W_KI_N@Z 0000000180014118 f   libucrt:xtoa.obj
 0001:000136a4       ??$?RV<lambda_842d9ff0dc9ef11c61343bbaebe7f885>@@AEAV<lambda_c5860995281e5c4ce005b3de8f5874ee>@@V<lambda_d90129c13df834fdcbf8d2b88dafcf2d>@@@?$__crt_seh_guarded_call@X@@QEAAX$$QEAV<lambda_842d9ff0dc9ef11c61343bbaebe7f885>@@AEAV<lambda_c5860995281e5c4ce005b3de8f5874ee>@@$$QEAV<lambda_d90129c13df834fdcbf8d2b88dafcf2d>@@@Z 00000001800146a4 f   libucrt:fflush.obj
 0001:00013740       ??$?RV<lambda_886d6c58226a84441f68b9f2b8217b83>@@AEAV<lambda_ab61a845afdef5b7c387490eaf3616ee>@@V<lambda_f7f22ab5edc0698d5f6905b0d3f44752>@@@?$__crt_seh_guarded_call@X@@QEAAX$$QEAV<lambda_886d6c58226a84441f68b9f2b8217b83>@@AEAV<lambda_ab61a845afdef5b7c387490eaf3616ee>@@$$QEAV<lambda_f7f22ab5edc0698d5f6905b0d3f44752>@@@Z 0000000180014740 f   libucrt:fflush.obj
 0001:00013820       ??$?RV<lambda_c376a267cfb53b6959b3b692ec76b120>@@AEAV<lambda_9a32fed5bf61b6b509b2d3f6003082a1>@@V<lambda_572fbb9fa0ab338edf41edfd4b5fcc8d>@@@?$__crt_seh_guarded_call@H@@QEAAH$$QEAV<lambda_c376a267cfb53b6959b3b692ec76b120>@@AEAV<lambda_9a32fed5bf61b6b509b2d3f6003082a1>@@$$QEAV<lambda_572fbb9fa0ab338edf41edfd4b5fcc8d>@@@Z 0000000180014820 f   libucrt:fflush.obj
 0001:00013860       ?common_flush_all@@YAH_N@Z 0000000180014860 f   libucrt:fflush.obj
 0001:000139f8       ??$?RV<lambda_84ec643ea9557e2f7dc01bb0e9624395>@@AEAV<lambda_ca71763b3c0644891230e4f79ea54fa6>@@V<lambda_439a761618c59b0600e24586724d733b>@@@?$__crt_seh_guarded_call@H@@QEAAH$$QEAV<lambda_84ec643ea9557e2f7dc01bb0e9624395>@@AEAV<lambda_ca71763b3c0644891230e4f79ea54fa6>@@$$QEAV<lambda_439a761618c59b0600e24586724d733b>@@@Z 00000001800149f8 f   libucrt:setvbuf.obj
 0001:00013a38       ??R<lambda_ca71763b3c0644891230e4f79ea54fa6>@@QEBAHXZ 0000000180014a38 f   libucrt:setvbuf.obj
 0001:00013bb4       ??$?RV<lambda_450d765d439847d4c735a33c368b5fc0>@@AEAV<lambda_44731a7d0e6d81c3e6aa82d741081786>@@V<lambda_601a2a7da3b7a96e9554ac7215c4b07c>@@@?$__crt_seh_guarded_call@P6AXH@Z@@QEAAP6AXH@Z$$QEAV<lambda_450d765d439847d4c735a33c368b5fc0>@@AEAV<lambda_44731a7d0e6d81c3e6aa82d741081786>@@$$QEAV<lambda_601a2a7da3b7a96e9554ac7215c4b07c>@@@Z 0000000180014bb4 f   libucrt:signal.obj
 0001:00013f20       ??$?RV<lambda_410d79af7f07d98d83a3f525b3859a53>@@AEAV<lambda_3e16ef9562a7dcce91392c22ab16ea36>@@V<lambda_38119f0e861e05405d8a144b9b982f0a>@@@?$__crt_seh_guarded_call@X@@QEAAX$$QEAV<lambda_410d79af7f07d98d83a3f525b3859a53>@@AEAV<lambda_3e16ef9562a7dcce91392c22ab16ea36>@@$$QEAV<lambda_38119f0e861e05405d8a144b9b982f0a>@@@Z 0000000180014f20 f   libucrt:wsetlocale.obj
 0001:0001402c       ?try_get_function@@YAPEAXW4function_id@?A0x391cf84c@@QEBDQEBW4module_id@2@2@Z 000000018001502c f   libucrt:winapi_thunks.obj
 0001:0001497c       ?initialize_inherited_file_handles_nolock@@YAXXZ 000000018001597c f   libucrt:ioinit.obj
 0001:00014a6c       ?initialize_stdio_handles_nolock@@YAXXZ 0000000180015a6c f   libucrt:ioinit.obj
 0001:000152ac       ?fp_format_a@@YAHQEBNPEAD_KQEAD2H_NIQEAU__crt_locale_pointers@@@Z 00000001800162ac f   libucrt:cvt.obj
 0001:0001561c       ?fp_format_e@@YAHQEBNQEAD_K12H_NIQEAU__crt_locale_pointers@@@Z 000000018001661c f   libucrt:cvt.obj
 0001:000156f8       ?fp_format_e_internal@@YAHQEAD_KH_NIQEAU_strflt@@2QEAU__crt_locale_pointers@@@Z 00000001800166f8 f   libucrt:cvt.obj
 0001:000158cc       ?fp_format_f_internal@@YAHQEAD_KHQEAU_strflt@@_NQEAU__crt_locale_pointers@@@Z 00000001800168cc f   libucrt:cvt.obj
 0001:00015a10       ?fp_format_g@@YAHQEBNQEAD_K12H_NIQEAU__crt_locale_pointers@@@Z 0000000180016a10 f   libucrt:cvt.obj
 0001:000162dc       ?<lambda_invoker_cdecl>@<lambda_a1ce4c8ae42411fd470c77163914f50e>@@CAHPEBX0@Z 00000001800172dc f   libucrt:argv_wildcards.obj
 0001:000165f4       ??$common_expand_argv_wildcards@D@@YAHQEAPEADQEAPEAPEAD@Z 00000001800175f4 f   libucrt:argv_wildcards.obj
 0001:00016800       ??$copy_and_add_argument_to_buffer@D@@YAHQEBD0_KAEAV?$argument_list@D@?A0x5f5c8891@@@Z 0000000180017800 f   libucrt:argv_wildcards.obj
 0001:00016988       ??$expand_argument_wildcards@D@@YAHQEAD0AEAV?$argument_list@D@?A0x5f5c8891@@@Z 0000000180017988 f   libucrt:argv_wildcards.obj
 0001:00016ca0       ??$?RV<lambda_efdfa57d1f175319df784efa44bb7b81>@@AEAV<lambda_5f0a4c1567f8adc6734073e5d1e1b35c>@@V<lambda_2e8a7d3640ea6ccb4c2413664c2db6fd>@@@?$__crt_seh_guarded_call@X@@QEAAX$$QEAV<lambda_efdfa57d1f175319df784efa44bb7b81>@@AEAV<lambda_5f0a4c1567f8adc6734073e5d1e1b35c>@@$$QEAV<lambda_2e8a7d3640ea6ccb4c2413664c2db6fd>@@@Z 0000000180017ca0 f   libucrt:mbctype.obj
 0001:00016e5c       ?getSystemCP@@YAHH@Z       0000000180017e5c f   libucrt:mbctype.obj
 0001:00016edc       ?setSBCS@@YAXPEAU__crt_multibyte_data@@@Z 0000000180017edc f   libucrt:mbctype.obj
 0001:00016f6c       ?setSBUpLow@@YAXPEAU__crt_multibyte_data@@@Z 0000000180017f6c f   libucrt:mbctype.obj
 0001:00017150       ?setmbcp_internal@@YAHH_NQEAU__acrt_ptd@@QEAPEAU__crt_multibyte_data@@@Z 0000000180018150 f   libucrt:mbctype.obj
 0001:00017314       ?update_thread_multibyte_data_internal@@YAPEAU__crt_multibyte_data@@QEAU__acrt_ptd@@QEAPEAU1@@Z 0000000180018314 f   libucrt:mbctype.obj
 0001:00017704       ?x_ismbbtype_l@@YAHPEAU__crt_locale_pointers@@IHH@Z 0000000180018704 f   libucrt:ismbbyte.obj
 0001:0001833c       ??$?RV<lambda_a37b2b86f63e897a80ea819b0eb08c01>@@AEAV<lambda_38ce7e780aa69e748d6df282ebc68efe>@@V<lambda_99fb1378e971ab6e7edea83e3a7a83a2>@@@?$__crt_seh_guarded_call@H@@QEAAH$$QEAV<lambda_a37b2b86f63e897a80ea819b0eb08c01>@@AEAV<lambda_38ce7e780aa69e748d6df282ebc68efe>@@$$QEAV<lambda_99fb1378e971ab6e7edea83e3a7a83a2>@@@Z 000000018001933c f   libucrt:commit.obj
 0001:0001845c       ?write_double_translated_ansi_nolock@@YA?AUwrite_result@?A0x17268360@@HQEBDI@Z 000000018001945c f   libucrt:write.obj
 0001:0001892c       ?write_text_ansi_nolock@@YA?AUwrite_result@?A0x17268360@@HQEBDI@Z 000000018001992c f   libucrt:write.obj
 0001:00018a30       ?write_text_utf16le_nolock@@YA?AUwrite_result@?A0x17268360@@HQEBDI@Z 0000000180019a30 f   libucrt:write.obj
 0001:00018b4c       ?write_text_utf8_nolock@@YA?AUwrite_result@?A0x17268360@@HQEBDI@Z 0000000180019b4c f   libucrt:write.obj
 0001:000191fc       ?free_crt_array_internal@@YAXQEAPEBX_K@Z 000000018001a1fc f   libucrt:inittime.obj
 0001:0001b1a0       memcpy_s                   000000018001c1a0 f   libucrt:cfout.obj
 0001:0001b228       ??$write_buffer_nolock@D@@YA_NDV__crt_stdio_stream@@@Z 000000018001c228 f   libucrt:_flsbuf.obj
 0001:0001b30c       ??$write_buffer_nolock@_W@@YA_N_WV__crt_stdio_stream@@@Z 000000018001c30c f   libucrt:_flsbuf.obj
 0001:0001b3f4       ?stream_is_at_end_of_file_nolock@@YA_NV__crt_stdio_stream@@@Z 000000018001c3f4 f   libucrt:_flsbuf.obj
 0001:0001ba60       fallbackMethod             000000018001ca60 f   libucrt:strpbrk.obj
 0001:0001be24       $LN78                      000000018001ce24     libucrt:strpbrk.obj
 0001:0001be60       $LN77                      000000018001ce60     libucrt:strpbrk.obj
 0001:0001bea0       $LN76                      000000018001cea0     libucrt:strpbrk.obj
 0001:0001bf7c       ?__acrt_LCMapStringA_stat@@YAHPEAU__crt_locale_pointers@@PEB_WKPEBDHPEADHHH@Z 000000018001cf7c f   libucrt:lcmapstringa.obj
 0001:0001c32c       ?initialize_multibyte@@YAHXZ 000000018001d32c f   libucrt:multibyte_initializer.obj
 0001:0001c5e0       ??$common_lseek@_J@@YA_JH_JH@Z 000000018001d5e0 f   libucrt:lseek.obj
 0001:0001c6d0       ??$common_lseek_nolock@_J@@YA_JH_JH@Z 000000018001d6d0 f   libucrt:lseek.obj
 0001:0001c804       ??$?RV<lambda_751a882b2c74d4b022dec766aa51a29a>@@AEAV<lambda_628dfdc04ba53c8bfc02c9951375f3f5>@@V<lambda_f6c7be5f7998530c34de24c7437d6b54>@@@?$__crt_seh_guarded_call@H@@QEAAH$$QEAV<lambda_751a882b2c74d4b022dec766aa51a29a>@@AEAV<lambda_628dfdc04ba53c8bfc02c9951375f3f5>@@$$QEAV<lambda_f6c7be5f7998530c34de24c7437d6b54>@@@Z 000000018001d804 f   libucrt:close.obj
 0001:0001cb80       $$000000                   000000018001db80     libucrt:log10.obj
 0001:0001d660       _call_matherr              000000018001e660 f   libucrt:libm_error.obj
 0001:0001d6c8       _exception_enabled         000000018001e6c8 f   libucrt:libm_error.obj
 0001:0001d960       _log_special_common        000000018001e960 f   libucrt:log_special.obj
 0001:0001da00       $$000000                   000000018001ea00     libucrt:fpsr.obj
 0001:0001e6f0       $$000000                   000000018001f6f0     LIBCMT:chkstk.obj
 0001:0001e760       $$000000                   000000018001f760     libvcruntime:memcmp.obj
 0001:0001e9f0       $$000000                   000000018001f9f0     LIBCMT:guard_dispatch.obj
 0001:0001ea10       ?dtor$0@?0??_Throw_bad_array_new_length@std@@YAXXZ@4HA 000000018001fa10 f   scrypt_common.obj
 0001:0001ea20       ?dtor$0@?0??ScryptErrorDescr@?A0x816004c9@@YAPEBDI@Z@4HA 000000018001fa20 f   scrypt_common.obj
 0001:0001ea2c       ?dtor$1@?0??ScryptErrorDescr@?A0x816004c9@@YAPEBDI@Z@4HA 000000018001fa2c f   scrypt_common.obj
 0001:0001ea38       ?dtor$2@?0??ScryptErrorDescr@?A0x816004c9@@YAPEBDI@Z@4HA 000000018001fa38 f   scrypt_common.obj
 0001:0001ea50       ?dtor$0@?0??ScryptError@NodeScrypt@@YA?AV?$Local@VValue@v8@@@v8@@I@Z@4HA 000000018001fa50 f   scrypt_common.obj
 0001:0001ea5c       ?dtor$2@?0??ScryptError@NodeScrypt@@YA?AV?$Local@VValue@v8@@@v8@@I@Z@4HA 000000018001fa5c f   scrypt_common.obj
 0001:0001ea70       ?dtor$0@?0??Call@Callback@Nan@@QEBA?AV?$Local@VValue@v8@@@v8@@HQEAV34@@Z@4HA 000000018001fa70 f   scrypt_params_async.obj
 0001:0001ea7e       ?dtor$1@?0??Call@Callback@Nan@@QEBA?AV?$Local@VValue@v8@@@v8@@HQEAV34@@Z@4HA 000000018001fa7e f   scrypt_params_async.obj
 0001:0001ea8a       ?dtor$2@?0??Call@Callback@Nan@@QEBA?AV?$Local@VValue@v8@@@v8@@HQEAV34@@Z@4HA 000000018001fa8a f   scrypt_params_async.obj
 0001:0001eaa0       ?dtor$0@?0??Call_@Callback@Nan@@AEBA?AV?$MaybeLocal@VValue@v8@@@v8@@PEAVIsolate@4@V?$Local@VObject@v8@@@4@HQEAV?$Local@VValue@v8@@@4@PEAVAsyncResource@2@@Z@4HA 000000018001faa0 f   scrypt_params_async.obj
 0001:0001eab0       ?dtor$0@?0??HandleErrorCallback@ScryptAsyncWorker@@UEAAXXZ@4HA 000000018001fab0 f   scrypt_params_async.obj
 0001:0001eab0       ?dtor$0@?0??WorkComplete@AsyncWorker@Nan@@UEAAXXZ@4HA 000000018001fab0 f   scrypt_params_async.obj
 0001:0001eab0       ?dtor$0@?0??WorkComplete@ScryptAsyncWorker@@UEAAXXZ@4HA 000000018001fab0 f   scrypt_params_async.obj
 0001:0001eac0       ?dtor$0@?0??HandleOKCallback@ScryptHashAsyncWorker@@UEAAXXZ@4HA 000000018001fac0 f   scrypt_hash_async.obj
 0001:0001eac0       ?dtor$0@?0??HandleOKCallback@ScryptKDFAsyncWorker@@UEAAXXZ@4HA 000000018001fac0 f   scrypt_kdf_async.obj
 0001:0001eac0       ?dtor$0@?0??HandleErrorCallback@AsyncWorker@Nan@@MEAAXXZ@4HA 000000018001fac0 f   scrypt_params_async.obj
 0001:0001eac0       ?dtor$0@?0??HandleOKCallback@AsyncWorker@Nan@@MEAAXXZ@4HA 000000018001fac0 f   scrypt_params_async.obj
 0001:0001ead0       ?dtor$1@?0???0ScryptAsyncWorker@@QEAA@PEAVCallback@Nan@@@Z@4HA 000000018001fad0 f   scrypt_params_async.obj
 0001:0001eadc       ?dtor$2@?0???0ScryptAsyncWorker@@QEAA@PEAVCallback@Nan@@@Z@4HA 000000018001fadc f   scrypt_params_async.obj
 0001:0001eb00       ?dtor$0@?0??HandleOKCallback@ScryptParamsAsyncWorker@@UEAAXXZ@4HA 000000018001fb00 f   scrypt_params_async.obj
 0001:0001eb0c       ?dtor$2@?0??HandleOKCallback@ScryptParamsAsyncWorker@@UEAAXXZ@4HA 000000018001fb0c f   scrypt_params_async.obj
 0001:0001eb1a       ?dtor$4@?0??HandleOKCallback@ScryptParamsAsyncWorker@@UEAAXXZ@4HA 000000018001fb1a f   scrypt_params_async.obj
 0001:0001eb28       ?dtor$6@?0??HandleOKCallback@ScryptParamsAsyncWorker@@UEAAXXZ@4HA 000000018001fb28 f   scrypt_params_async.obj
 0001:0001eb40       ?dtor$0@?0??params@@YAXAEBV?$FunctionCallbackInfo@VValue@v8@@@Nan@@@Z@4HA 000000018001fb40 f   scrypt_params_async.obj
 0001:0001eb5d       ?dtor$1@?0??params@@YAXAEBV?$FunctionCallbackInfo@VValue@v8@@@Nan@@@Z@4HA 000000018001fb5d f   scrypt_params_async.obj
 0001:0001eb7a       ?dtor$2@?0??params@@YAXAEBV?$FunctionCallbackInfo@VValue@v8@@@Nan@@@Z@4HA 000000018001fb7a f   scrypt_params_async.obj
 0001:0001eb90       ?dtor$0@?0??paramsSync@@YAXAEBV?$FunctionCallbackInfo@VValue@v8@@@Nan@@@Z@4HA 000000018001fb90 f   scrypt_params_sync.obj
 0001:0001eb9e       ?dtor$2@?0??paramsSync@@YAXAEBV?$FunctionCallbackInfo@VValue@v8@@@Nan@@@Z@4HA 000000018001fb9e f   scrypt_params_sync.obj
 0001:0001ebac       ?dtor$4@?0??paramsSync@@YAXAEBV?$FunctionCallbackInfo@VValue@v8@@@Nan@@@Z@4HA 000000018001fbac f   scrypt_params_sync.obj
 0001:0001ebc0       ?dtor$0@?0??SaveToPersistent@AsyncWorker@Nan@@QEAAXPEBDAEBV?$Local@VValue@v8@@@v8@@@Z@4HA 000000018001fbc0 f   scrypt_kdf_async.obj
 0001:0001ebcc       ?dtor$2@?0??SaveToPersistent@AsyncWorker@Nan@@QEAAXPEBDAEBV?$Local@VValue@v8@@@v8@@@Z@4HA 000000018001fbcc f   scrypt_kdf_async.obj
 0001:0001ebe0       ?dtor$0@?0??GetFromPersistent@AsyncWorker@Nan@@QEBA?AV?$Local@VValue@v8@@@v8@@PEBD@Z@4HA 000000018001fbe0 f   scrypt_kdf_async.obj
 0001:0001ebec       ?dtor$2@?0??GetFromPersistent@AsyncWorker@Nan@@QEBA?AV?$Local@VValue@v8@@@v8@@PEBD@Z@4HA 000000018001fbec f   scrypt_kdf_async.obj
 0001:0001ec00       ?dtor$0@?0???0ScryptHashAsyncWorker@@QEAA@AEBV?$FunctionCallbackInfo@VValue@v8@@@Nan@@@Z@4HA 000000018001fc00 f   scrypt_hash_async.obj
 0001:0001ec00       ?dtor$0@?0???0ScryptKDFVerifyAsyncWorker@@QEAA@AEBV?$FunctionCallbackInfo@VValue@v8@@@Nan@@@Z@4HA 000000018001fc00 f   scrypt_kdf-verify_async.obj
 0001:0001ec00       ?dtor$0@?0???0ScryptKDFAsyncWorker@@QEAA@AEBV?$FunctionCallbackInfo@VValue@v8@@@Nan@@@Z@4HA 000000018001fc00 f   scrypt_kdf_async.obj
 0001:0001ec1d       ?dtor$1@?0???0ScryptHashAsyncWorker@@QEAA@AEBV?$FunctionCallbackInfo@VValue@v8@@@Nan@@@Z@4HA 000000018001fc1d f   scrypt_hash_async.obj
 0001:0001ec1d       ?dtor$1@?0???0ScryptKDFVerifyAsyncWorker@@QEAA@AEBV?$FunctionCallbackInfo@VValue@v8@@@Nan@@@Z@4HA 000000018001fc1d f   scrypt_kdf-verify_async.obj
 0001:0001ec1d       ?dtor$1@?0???0ScryptKDFAsyncWorker@@QEAA@AEBV?$FunctionCallbackInfo@VValue@v8@@@Nan@@@Z@4HA 000000018001fc1d f   scrypt_kdf_async.obj
 0001:0001ec30       ?dtor$0@?0??kdf@@YAXAEBV?$FunctionCallbackInfo@VValue@v8@@@Nan@@@Z@4HA 000000018001fc30 f   scrypt_kdf_async.obj
 0001:0001ec50       ?dtor$0@?0??HandleOKCallback@ScryptKDFVerifyAsyncWorker@@UEAAXXZ@4HA 000000018001fc50 f   scrypt_kdf-verify_async.obj
 0001:0001ec60       ?dtor$0@?0??kdfVerify@@YAXAEBV?$FunctionCallbackInfo@VValue@v8@@@Nan@@@Z@4HA 000000018001fc60 f   scrypt_kdf-verify_async.obj
 0001:0001ec80       ?dtor$0@?0??hash@@YAXAEBV?$FunctionCallbackInfo@VValue@v8@@@Nan@@@Z@4HA 000000018001fc80 f   scrypt_hash_async.obj
 0001:0001eca0       ?dtor$0@?0??InitAll@@YAXV?$Local@VObject@v8@@@v8@@@Z@4HA 000000018001fca0 f   scrypt_node.obj
 0001:0001ecae       ?dtor$2@?0??InitAll@@YAXV?$Local@VObject@v8@@@v8@@@Z@4HA 000000018001fcae f   scrypt_node.obj
 0001:0001ecbc       ?dtor$3@?0??InitAll@@YAXV?$Local@VObject@v8@@@v8@@@Z@4HA 000000018001fcbc f   scrypt_node.obj
 0001:0001ecca       ?dtor$5@?0??InitAll@@YAXV?$Local@VObject@v8@@@v8@@@Z@4HA 000000018001fcca f   scrypt_node.obj
 0001:0001ecd8       ?dtor$6@?0??InitAll@@YAXV?$Local@VObject@v8@@@v8@@@Z@4HA 000000018001fcd8 f   scrypt_node.obj
 0001:0001ece6       ?dtor$8@?0??InitAll@@YAXV?$Local@VObject@v8@@@v8@@@Z@4HA 000000018001fce6 f   scrypt_node.obj
 0001:0001ecf4       ?dtor$9@?0??InitAll@@YAXV?$Local@VObject@v8@@@v8@@@Z@4HA 000000018001fcf4 f   scrypt_node.obj
 0001:0001ed02       ?dtor$11@?0??InitAll@@YAXV?$Local@VObject@v8@@@v8@@@Z@4HA 000000018001fd02 f   scrypt_node.obj
 0001:0001ed10       ?dtor$12@?0??InitAll@@YAXV?$Local@VObject@v8@@@v8@@@Z@4HA 000000018001fd10 f   scrypt_node.obj
 0001:0001ed1e       ?dtor$14@?0??InitAll@@YAXV?$Local@VObject@v8@@@v8@@@Z@4HA 000000018001fd1e f   scrypt_node.obj
 0001:0001ed2c       ?dtor$15@?0??InitAll@@YAXV?$Local@VObject@v8@@@v8@@@Z@4HA 000000018001fd2c f   scrypt_node.obj
 0001:0001ed3a       ?dtor$17@?0??InitAll@@YAXV?$Local@VObject@v8@@@v8@@@Z@4HA 000000018001fd3a f   scrypt_node.obj
 0001:0001ed48       ?dtor$18@?0??InitAll@@YAXV?$Local@VObject@v8@@@v8@@@Z@4HA 000000018001fd48 f   scrypt_node.obj
 0001:0001ed56       ?dtor$20@?0??InitAll@@YAXV?$Local@VObject@v8@@@v8@@@Z@4HA 000000018001fd56 f   scrypt_node.obj
 0001:0001ed64       ?dtor$21@?0??InitAll@@YAXV?$Local@VObject@v8@@@v8@@@Z@4HA 000000018001fd64 f   scrypt_node.obj
 0001:0001ed72       ?dtor$23@?0??InitAll@@YAXV?$Local@VObject@v8@@@v8@@@Z@4HA 000000018001fd72 f   scrypt_node.obj
 0001:0001ed80       ?dtor$0@?0???$New@VFunctionTemplate@v8@@@Nan@@YA?AV?$Local@VFunctionTemplate@v8@@@v8@@P6AXAEBV?$FunctionCallbackInfo@VValue@v8@@@0@@ZV?$Local@VValue@v8@@@2@@Z@4HA 000000018001fd80 f   scrypt_node.obj
 0001:0001ed8e       ?dtor$1@?0???$New@VFunctionTemplate@v8@@@Nan@@YA?AV?$Local@VFunctionTemplate@v8@@@v8@@P6AXAEBV?$FunctionCallbackInfo@VValue@v8@@@0@@ZV?$Local@VValue@v8@@@2@@Z@4HA 000000018001fd8e f   scrypt_node.obj
 0001:0001ed9c       ?fin$0@?0??dllmain_crt_process_attach@@YAHQEAUHINSTANCE__@@QEAX@Z@4HA 000000018001fd9c f   LIBCMT:dll_dllmain.obj
 0001:0001edb3       ?fin$0@?0??dllmain_crt_process_detach@@YAH_N@Z@4HA 000000018001fdb3 f   LIBCMT:dll_dllmain.obj
 0001:0001edcf       ?filt$0@?0??dllmain_dispatch@@YAHQEAUHINSTANCE__@@KQEAX@Z@4HA 000000018001fdcf f   LIBCMT:dll_dllmain.obj
 0001:0001ee05       __scrt_is_nonwritable_in_current_image$filt$0 000000018001fe05 f   LIBCMT:utility.obj
 0001:0001ee1d       ?filt$0@?0???$_CallSETranslator@V__FrameHandler4@@@@YAHPEAUEHExceptionRecord@@PEA_KPEAU_CONTEXT@@PEAU_xDISPATCHER_CONTEXT@@PEAUFuncInfo4@FH4@@K1@Z@4HA 000000018001fe1d f   libvcruntime:risctrnsctrl.obj
 0001:0001eeae       __DestructExceptionObject$filt$0 000000018001feae f   libvcruntime:ehhelpers.obj
 0001:0001ef44       ?filt$0@?0??CxxCallCatchBlock@__FrameHandler4@@SAPEAXPEAU_EXCEPTION_RECORD@@@Z@4HA 000000018001ff44 f   libvcruntime:frame.obj
 0001:0001ef73       ?fin$1@?0??CxxCallCatchBlock@__FrameHandler4@@SAPEAXPEAU_EXCEPTION_RECORD@@@Z@4HA 000000018001ff73 f   libvcruntime:frame.obj
 0001:0001eff6       ?filt$0@?0??FrameUnwindToState@__FrameHandler4@@SAXPEA_KPEAU_xDISPATCHER_CONTEXT@@PEAUFuncInfo4@FH4@@H@Z@4HA 000000018001fff6 f   libvcruntime:frame.obj
 0001:0001f00c       ?fin$1@?0??FrameUnwindToState@__FrameHandler4@@SAXPEA_KPEAU_xDISPATCHER_CONTEXT@@PEAUFuncInfo4@FH4@@H@Z@4HA 000000018002000c f   libvcruntime:frame.obj
 0001:0001f02f       ?fin$0@?0???$?RV<lambda_842d9ff0dc9ef11c61343bbaebe7f885>@@AEAV<lambda_c5860995281e5c4ce005b3de8f5874ee>@@V<lambda_d90129c13df834fdcbf8d2b88dafcf2d>@@@?$__crt_seh_guarded_call@X@@QEAAX$$QEAV<lambda_842d9ff0dc9ef11c61343bbaebe7f885>@@AEAV<lambda_c5860995281e5c4ce005b3de8f5874ee>@@$$QEAV<lambda_d90129c13df834fdcbf8d2b88dafcf2d>@@@Z@4HA 000000018002002f f   libucrt:fflush.obj
 0001:0001f02f       ?fin$0@?0???$?RV<lambda_c376a267cfb53b6959b3b692ec76b120>@@AEAV<lambda_9a32fed5bf61b6b509b2d3f6003082a1>@@V<lambda_572fbb9fa0ab338edf41edfd4b5fcc8d>@@@?$__crt_seh_guarded_call@H@@QEAAH$$QEAV<lambda_c376a267cfb53b6959b3b692ec76b120>@@AEAV<lambda_9a32fed5bf61b6b509b2d3f6003082a1>@@$$QEAV<lambda_572fbb9fa0ab338edf41edfd4b5fcc8d>@@@Z@4HA 000000018002002f f   libucrt:fflush.obj
 0001:0001f02f       ?fin$0@?0???$?RV<lambda_676bd5779251ec186b530f0a904b4b35>@@AEAV<lambda_b579ea784fd840951dfbcbdaebf709fd>@@V<lambda_10027885da78ada7fb00668d7e2e96b5>@@@?$__crt_seh_guarded_call@H@@QEAAH$$QEAV<lambda_676bd5779251ec186b530f0a904b4b35>@@AEAV<lambda_b579ea784fd840951dfbcbdaebf709fd>@@$$QEAV<lambda_10027885da78ada7fb00668d7e2e96b5>@@@Z@4HA 000000018002002f f   libucrt:output.obj
 0001:0001f02f       ?fin$0@?0???$?RV<lambda_fe5404e9642edbb7c8ae71e1dcfa4018>@@AEAV<lambda_36eeb330e99a4f0bf8a7da86d0894cb9>@@V<lambda_2fa474834de80dc12f7a3c6eddd7a366>@@@?$__crt_seh_guarded_call@H@@QEAAH$$QEAV<lambda_fe5404e9642edbb7c8ae71e1dcfa4018>@@AEAV<lambda_36eeb330e99a4f0bf8a7da86d0894cb9>@@$$QEAV<lambda_2fa474834de80dc12f7a3c6eddd7a366>@@@Z@4HA 000000018002002f f   libucrt:output.obj
 0001:0001f02f       ?fin$0@?0???$?RV<lambda_84ec643ea9557e2f7dc01bb0e9624395>@@AEAV<lambda_ca71763b3c0644891230e4f79ea54fa6>@@V<lambda_439a761618c59b0600e24586724d733b>@@@?$__crt_seh_guarded_call@H@@QEAAH$$QEAV<lambda_84ec643ea9557e2f7dc01bb0e9624395>@@AEAV<lambda_ca71763b3c0644891230e4f79ea54fa6>@@$$QEAV<lambda_439a761618c59b0600e24586724d733b>@@@Z@4HA 000000018002002f f   libucrt:setvbuf.obj
 0001:0001f04a       _query_new_handler$fin$0   000000018002004a f   libucrt:new_handler.obj
 0001:0001f060       ?fin$0@?0???$?RV<lambda_0ae27a3a962d80f24befdcbee591983d>@@AEAV<lambda_8d0ee55de4b1038c4002e0adecdf1839>@@V<lambda_dc504788e8f1664fe9b84e20bfb512f2>@@@?$__crt_seh_guarded_call@X@@QEAAX$$QEAV<lambda_0ae27a3a962d80f24befdcbee591983d>@@AEAV<lambda_8d0ee55de4b1038c4002e0adecdf1839>@@$$QEAV<lambda_dc504788e8f1664fe9b84e20bfb512f2>@@@Z@4HA 0000000180020060 f   libucrt:per_thread_data.obj
 0001:0001f060       ?fin$0@?0???$?RV<lambda_2d41944a1d46af3157314b8a01080d33>@@AEAV<lambda_8f455de75cd7d7f24b4096f044d8b9e6>@@V<lambda_aa500f224e6afead328df44964fe2772>@@@?$__crt_seh_guarded_call@X@@QEAAX$$QEAV<lambda_2d41944a1d46af3157314b8a01080d33>@@AEAV<lambda_8f455de75cd7d7f24b4096f044d8b9e6>@@$$QEAV<lambda_aa500f224e6afead328df44964fe2772>@@@Z@4HA 0000000180020060 f   libucrt:per_thread_data.obj
 0001:0001f060       ?fin$0@?0???$?RV<lambda_aa87e3671a710a21b5dc78c0bdf72e11>@@AEAV<lambda_92619d2358a28f41a33ba319515a20b9>@@V<lambda_6992ecaafeb10aed2b74cb1fae11a551>@@@?$__crt_seh_guarded_call@X@@QEAAX$$QEAV<lambda_aa87e3671a710a21b5dc78c0bdf72e11>@@AEAV<lambda_92619d2358a28f41a33ba319515a20b9>@@$$QEAV<lambda_6992ecaafeb10aed2b74cb1fae11a551>@@@Z@4HA 0000000180020060 f   libucrt:per_thread_data.obj
 0001:0001f060       ?fin$0@?0???$?RV<lambda_f2e299630e499de9f9a165e60fcd3db5>@@AEAV<lambda_2ae9d31cdba2644fcbeaf08da7c24588>@@V<lambda_40d01ff24d0e7b3814fdbdcee8eab3c7>@@@?$__crt_seh_guarded_call@X@@QEAAX$$QEAV<lambda_f2e299630e499de9f9a165e60fcd3db5>@@AEAV<lambda_2ae9d31cdba2644fcbeaf08da7c24588>@@$$QEAV<lambda_40d01ff24d0e7b3814fdbdcee8eab3c7>@@@Z@4HA 0000000180020060 f   libucrt:per_thread_data.obj
 0001:0001f060       ?fin$0@?0???$?RV<lambda_efdfa57d1f175319df784efa44bb7b81>@@AEAV<lambda_5f0a4c1567f8adc6734073e5d1e1b35c>@@V<lambda_2e8a7d3640ea6ccb4c2413664c2db6fd>@@@?$__crt_seh_guarded_call@X@@QEAAX$$QEAV<lambda_efdfa57d1f175319df784efa44bb7b81>@@AEAV<lambda_5f0a4c1567f8adc6734073e5d1e1b35c>@@$$QEAV<lambda_2e8a7d3640ea6ccb4c2413664c2db6fd>@@@Z@4HA 0000000180020060 f   libucrt:mbctype.obj
 0001:0001f060       ?fin$0@?0???$?RV<lambda_450d765d439847d4c735a33c368b5fc0>@@AEAV<lambda_44731a7d0e6d81c3e6aa82d741081786>@@V<lambda_601a2a7da3b7a96e9554ac7215c4b07c>@@@?$__crt_seh_guarded_call@P6AXH@Z@@QEAAP6AXH@Z$$QEAV<lambda_450d765d439847d4c735a33c368b5fc0>@@AEAV<lambda_44731a7d0e6d81c3e6aa82d741081786>@@$$QEAV<lambda_601a2a7da3b7a96e9554ac7215c4b07c>@@@Z@4HA 0000000180020060 f   libucrt:signal.obj
 0001:0001f060       ?fin$0@?0???$?RV<lambda_d80eeec6fff315bfe5c115232f3240e3>@@AEAV<lambda_6e4b09c48022b2350581041d5f6b0c4c>@@V<lambda_2358e3775559c9db80273638284d5e45>@@@?$__crt_seh_guarded_call@X@@QEAAX$$QEAV<lambda_d80eeec6fff315bfe5c115232f3240e3>@@AEAV<lambda_6e4b09c48022b2350581041d5f6b0c4c>@@$$QEAV<lambda_2358e3775559c9db80273638284d5e45>@@@Z@4HA 0000000180020060 f   libucrt:exit.obj
 0001:0001f060       ?fin$0@?0???$?RV<lambda_7777bce6b2f8c936911f934f8298dc43>@@AEAV<lambda_f03950bc5685219e0bcd2087efbe011e>@@V<lambda_3883c3dff614d5e0c5f61bb1ac94921c>@@@?$__crt_seh_guarded_call@H@@QEAAH$$QEAV<lambda_7777bce6b2f8c936911f934f8298dc43>@@AEAV<lambda_f03950bc5685219e0bcd2087efbe011e>@@$$QEAV<lambda_3883c3dff614d5e0c5f61bb1ac94921c>@@@Z@4HA 0000000180020060 f   libucrt:onexit.obj
 0001:0001f07a       ?filt$0@?0???R<lambda_6e4b09c48022b2350581041d5f6b0c4c>@@QEBA@XZ@4HA 000000018002007a f   libucrt:exit.obj
 0001:0001f095       ?fin$0@?0???$?RV<lambda_886d6c58226a84441f68b9f2b8217b83>@@AEAV<lambda_ab61a845afdef5b7c387490eaf3616ee>@@V<lambda_f7f22ab5edc0698d5f6905b0d3f44752>@@@?$__crt_seh_guarded_call@X@@QEAAX$$QEAV<lambda_886d6c58226a84441f68b9f2b8217b83>@@AEAV<lambda_ab61a845afdef5b7c387490eaf3616ee>@@$$QEAV<lambda_f7f22ab5edc0698d5f6905b0d3f44752>@@@Z@4HA 0000000180020095 f   libucrt:fflush.obj
 0001:0001f0b2       raise$fin$0                00000001800200b2 f   libucrt:signal.obj
 0001:0001f0d3       ?fin$0@?0???$?RV<lambda_410d79af7f07d98d83a3f525b3859a53>@@AEAV<lambda_3e16ef9562a7dcce91392c22ab16ea36>@@V<lambda_38119f0e861e05405d8a144b9b982f0a>@@@?$__crt_seh_guarded_call@X@@QEAAX$$QEAV<lambda_410d79af7f07d98d83a3f525b3859a53>@@AEAV<lambda_3e16ef9562a7dcce91392c22ab16ea36>@@$$QEAV<lambda_38119f0e861e05405d8a144b9b982f0a>@@@Z@4HA 00000001800200d3 f   libucrt:wsetlocale.obj
 0001:0001f0ed       _fcloseall$fin$0           00000001800200ed f   libucrt:closeall.obj
 0001:0001f106       __acrt_initialize_lowio$fin$0 0000000180020106 f   libucrt:ioinit.obj
 0001:0001f106       __acrt_lowio_ensure_fh_exists$fin$0 0000000180020106 f   libucrt:osfinfo.obj
 0001:0001f11f       ?fin$0@?0??update_thread_multibyte_data_internal@@YAPEAU__crt_multibyte_data@@QEAU__acrt_ptd@@QEAPEAU1@@Z@4HA 000000018002011f f   libucrt:mbctype.obj
 0001:0001f138       __acrt_update_thread_locale_data$fin$0 0000000180020138 f   libucrt:locale_refcounting.obj
 0001:0001f151       ?fin$0@?0???$?RV<lambda_751a882b2c74d4b022dec766aa51a29a>@@AEAV<lambda_628dfdc04ba53c8bfc02c9951375f3f5>@@V<lambda_f6c7be5f7998530c34de24c7437d6b54>@@@?$__crt_seh_guarded_call@H@@QEAAH$$QEAV<lambda_751a882b2c74d4b022dec766aa51a29a>@@AEAV<lambda_628dfdc04ba53c8bfc02c9951375f3f5>@@$$QEAV<lambda_f6c7be5f7998530c34de24c7437d6b54>@@@Z@4HA 0000000180020151 f   libucrt:close.obj
 0001:0001f151       ?fin$0@?0???$?RV<lambda_a37b2b86f63e897a80ea819b0eb08c01>@@AEAV<lambda_38ce7e780aa69e748d6df282ebc68efe>@@V<lambda_99fb1378e971ab6e7edea83e3a7a83a2>@@@?$__crt_seh_guarded_call@H@@QEAAH$$QEAV<lambda_a37b2b86f63e897a80ea819b0eb08c01>@@AEAV<lambda_38ce7e780aa69e748d6df282ebc68efe>@@$$QEAV<lambda_99fb1378e971ab6e7edea83e3a7a83a2>@@@Z@4HA 0000000180020151 f   libucrt:commit.obj
 0001:0001f16b       ?fin$0@?0???$common_lseek@_J@@YA_JH_JH@Z@4HA 000000018002016b f   libucrt:lseek.obj
 0001:0001f16b       _write$fin$0               000000018002016b f   libucrt:write.obj
 0001:0001f182       fclose$fin$0               0000000180020182 f   libucrt:fclose.obj
 0001:0001f19a       _ctrlfp$filt$0             000000018002019a f   libucrt:fpctrl.obj
 0001:0001f1d0       _IsNonwritableInCurrentImage$filt$0 00000001800201d0 f   LIBCMT:pesect.obj
 0002:000003c0       GS_ExceptionPointers       00000001800213c0     LIBCMT:gs_report.obj
 0002:00000410       ?ExceptionTemplate@?1??UnwindNestedFrames@__FrameHandler4@@SAXPEA_KPEAUEHExceptionRecord@@PEAU_CONTEXT@@0PEAXPEAUFuncInfo4@FH4@@HHPEAUHandlerType4@6@PEAU_xDISPATCHER_CONTEXT@@E@Z@4U_EXCEPTION_RECORD@@B 0000000180021410     libvcruntime:risctrnsctrl.obj
 0002:000004e0       ?tokenTable@@3QBUStringLiteral@@B 00000001800214e0     libvcruntime:undname.obj
 0002:000005e0       ?nameTable@@3QBUStringLiteral@@B 00000001800215e0     libvcruntime:undname.obj
 0002:00000b10       ?rttiTable@@3QBUStringLiteral@@B 0000000180021b10     libvcruntime:undname.obj
 0002:00000b60       ?IndirectionName@@3QBUStringLiteral@@B 0000000180021b60     libvcruntime:undname.obj
 0002:00000bc0       ?PrefixName@@3QBUStringLiteral@@B 0000000180021bc0     libvcruntime:undname.obj
 0002:00001298       ?module_names@?A0x87d18907@@3QBQEB_WB 0000000180022298     libvcruntime:winapi_downlevel.obj
 0002:00001358       ?candidate_modules@?1??try_get_FlsAlloc@@YAP6AKP6AXPEAX@Z@ZXZ@4QBW4module_id@?A0x87d18907@@B 0000000180022358     libvcruntime:winapi_downlevel.obj
 0002:00001370       ?candidate_modules@?1??try_get_FlsFree@@YAP6AHK@ZXZ@4QBW4module_id@?A0x87d18907@@B 0000000180022370     libvcruntime:winapi_downlevel.obj
 0002:00001380       ?candidate_modules@?1??try_get_FlsGetValue@@YAP6APEAXK@ZXZ@4QBW4module_id@?A0x87d18907@@B 0000000180022380     libvcruntime:winapi_downlevel.obj
 0002:00001398       ?candidate_modules@?1??try_get_FlsSetValue@@YAP6AHKPEAX@ZXZ@4QBW4module_id@?A0x87d18907@@B 0000000180022398     libvcruntime:winapi_downlevel.obj
 0002:000013b0       ?candidate_modules@?1??try_get_InitializeCriticalSectionEx@@YAP6AHPEAU_RTL_CRITICAL_SECTION@@KK@ZXZ@4QBW4module_id@?A0x87d18907@@B 00000001800223b0     libvcruntime:winapi_downlevel.obj
 0002:00001700       ?errtable@@3QBUerrentry@?A0x31fdb9ec@@B 0000000180022700     libucrt:errno.obj
 0002:000019f0       __acrt_initializers        00000001800229f0     libucrt:initialization.obj
 0002:00002670       ?module_names@?A0x391cf84c@@3QBQEB_WB 0000000180023670     libucrt:winapi_thunks.obj
 0002:00002b78       ?candidate_modules@?1??try_get_AreFileApisANSI@@YAP6AHXZXZ@4QBW4module_id@?A0x391cf84c@@B 0000000180023b78     libucrt:winapi_thunks.obj
 0002:00002b90       ?candidate_modules@?1??try_get_FlsAlloc@@YAP6AKP6AXPEAX@Z@ZXZ@4QBW4module_id@?A0x391cf84c@@B 0000000180023b90     libucrt:winapi_thunks.obj
 0002:00002b98       ?candidate_modules@?1??try_get_FlsFree@@YAP6AHK@ZXZ@4QBW4module_id@?A0x391cf84c@@B 0000000180023b98     libucrt:winapi_thunks.obj
 0002:00002ba0       ?candidate_modules@?1??try_get_FlsGetValue@@YAP6APEAXK@ZXZ@4QBW4module_id@?A0x391cf84c@@B 0000000180023ba0     libucrt:winapi_thunks.obj
 0002:00002ba8       ?candidate_modules@?1??try_get_FlsSetValue@@YAP6AHKPEAX@ZXZ@4QBW4module_id@?A0x391cf84c@@B 0000000180023ba8     libucrt:winapi_thunks.obj
 0002:00002bb0       ?candidate_modules@?1??try_get_GetActiveWindow@@YAP6APEAUHWND__@@XZXZ@4QBW4module_id@?A0x391cf84c@@B 0000000180023bb0     libucrt:winapi_thunks.obj
 0002:00002bc8       ?candidate_modules@?1??try_get_GetLastActivePopup@@YAP6APEAUHWND__@@PEAU2@@ZXZ@4QBW4module_id@?A0x391cf84c@@B 0000000180023bc8     libucrt:winapi_thunks.obj
 0002:00002be8       ?candidate_modules@?1??try_get_GetProcessWindowStation@@YAP6APEAUHWINSTA__@@XZXZ@4QBW4module_id@?A0x391cf84c@@B 0000000180023be8     libucrt:winapi_thunks.obj
 0002:00002c08       ?candidate_modules@?1??try_get_GetUserObjectInformationW@@YAP6AHPEAXH0KPEAK@ZXZ@4QBW4module_id@?A0x391cf84c@@B 0000000180023c08     libucrt:winapi_thunks.obj
 0002:00002c30       ?candidate_modules@?1??try_get_InitializeCriticalSectionEx@@YAP6AHPEAU_RTL_CRITICAL_SECTION@@KK@ZXZ@4QBW4module_id@?A0x391cf84c@@B 0000000180023c30     libucrt:winapi_thunks.obj
 0002:00002c38       ?candidate_modules@?1??try_get_LCMapStringEx@@YAP6AHPEB_WK0HPEA_WHPEAU_nlsversioninfo@@PEAX_J@ZXZ@4QBW4module_id@?A0x391cf84c@@B 0000000180023c38     libucrt:winapi_thunks.obj
 0002:00002c50       ?candidate_modules@?1??try_get_LocaleNameToLCID@@YAP6AKPEB_WK@ZXZ@4QBW4module_id@?A0x391cf84c@@B 0000000180023c50     libucrt:winapi_thunks.obj
 0002:00002c70       ?candidate_modules@?1??try_get_MessageBoxA@@YAP6AHPEAUHWND__@@PEBD1I@ZXZ@4QBW4module_id@?A0x391cf84c@@B 0000000180023c70     libucrt:winapi_thunks.obj
 0002:00002c88       ?candidate_modules@?1??try_get_MessageBoxW@@YAP6AHPEAUHWND__@@PEB_W1I@ZXZ@4QBW4module_id@?A0x391cf84c@@B 0000000180023c88     libucrt:winapi_thunks.obj
 0002:00002c9c       ?candidate_modules@?1??try_get_AppPolicyGetProcessTerminationMethod@@YAP6AJPEAXPEAW4AppPolicyProcessTerminationMethod@@@ZXZ@4QBW4module_id@?A0x391cf84c@@B 0000000180023c9c     libucrt:winapi_thunks.obj
 0002:00002cc8       ?candidate_modules@?1??try_get_AppPolicyGetShowDeveloperDiagnostic@@YAP6AJPEAXPEAW4AppPolicyShowDeveloperDiagnostic@@@ZXZ@4QBW4module_id@?A0x391cf84c@@B 0000000180023cc8     libucrt:winapi_thunks.obj
 0002:00002cf4       ?candidate_modules@?1??try_get_AppPolicyGetWindowingModel@@YAP6AJPEAXPEAW4AppPolicyWindowingModel@@@ZXZ@4QBW4module_id@?A0x391cf84c@@B 0000000180023cf4     libucrt:winapi_thunks.obj
 0002:00002d20       ?strings@?1??fp_format_nan_or_infinity@@YAHW4__acrt_fp_class@@_NPEAD_K1@Z@4QAY03QEBDA 0000000180023d20     libucrt:cvt.obj
 0002:00002df8       ?_mb_locale_names@@3QBQEB_WB 0000000180023df8     libucrt:mbctype.obj
 0002:00003670       ?LcidToLocaleNameTable@?A0x881e4c05@@3QBULcidToLocaleName@1@B 0000000180024670     libucrt:lcidtoname_downlevel.obj
 0002:000050d0       ?LocaleNameToIndexTable@?A0x881e4c05@@3QBULocaleNameIndex@1@B 00000001800260d0     libucrt:lcidtoname_downlevel.obj
 0002:00007280       ?large_power_indices@?1??multiply_by_power_of_ten@__crt_strtox@@YA_NAEAUbig_integer@2@I@Z@4QBUunpack_index@?1??12@YA_N0I@Z@B 0000000180028280     libucrt:cfout.obj
 0002:00007370       __real_ninf                0000000180028370     libucrt:log10.obj
 0002:00007380       __real_inf                 0000000180028380     libucrt:log10.obj
 0002:00007390       __real_neg_qnan            0000000180028390     libucrt:log10.obj
 0002:000073a0       __real_qnanbit             00000001800283a0     libucrt:log10.obj
 0002:000073b0       __int_1023                 00000001800283b0     libucrt:log10.obj
 0002:000073c0       __mask_001                 00000001800283c0     libucrt:log10.obj
 0002:000073d0       __mask_mant                00000001800283d0     libucrt:log10.obj
 0002:000073e0       __mask_mant_top8           00000001800283e0     libucrt:log10.obj
 0002:000073f0       __mask_mant9               00000001800283f0     libucrt:log10.obj
 0002:00007400       __real_log10_e             0000000180028400     libucrt:log10.obj
 0002:00007410       __real_log10_e_lead        0000000180028410     libucrt:log10.obj
 0002:00007420       __real_log10_e_tail        0000000180028420     libucrt:log10.obj
 0002:00007430       __real_log10_2_lead        0000000180028430     libucrt:log10.obj
 0002:00007440       __real_log10_2_tail        0000000180028440     libucrt:log10.obj
 0002:00007450       __real_two                 0000000180028450     libucrt:log10.obj
 0002:00007460       __real_one                 0000000180028460     libucrt:log10.obj
 0002:00007470       __real_half                0000000180028470     libucrt:log10.obj
 0002:00007480       __mask_100                 0000000180028480     libucrt:log10.obj
 0002:00007490       __real_1_over_512          0000000180028490     libucrt:log10.obj
 0002:000074a0       __real_1_over_2            00000001800284a0     libucrt:log10.obj
 0002:000074b0       __real_1_over_3            00000001800284b0     libucrt:log10.obj
 0002:000074c0       __real_1_over_4            00000001800284c0     libucrt:log10.obj
 0002:000074d0       __real_1_over_5            00000001800284d0     libucrt:log10.obj
 0002:000074e0       __real_1_over_6            00000001800284e0     libucrt:log10.obj
 0002:000074f0       __real_neg_1023            00000001800284f0     libucrt:log10.obj
 0002:00007500       __mask_2045                0000000180028500     libucrt:log10.obj
 0002:00007510       __real_threshold           0000000180028510     libucrt:log10.obj
 0002:00007520       __real_near_one_lt         0000000180028520     libucrt:log10.obj
 0002:00007530       __real_near_one_gt         0000000180028530     libucrt:log10.obj
 0002:00007540       __real_min_norm            0000000180028540     libucrt:log10.obj
 0002:00007550       __real_notsign             0000000180028550     libucrt:log10.obj
 0002:00007560       __real_ca1                 0000000180028560     libucrt:log10.obj
 0002:00007570       __real_ca2                 0000000180028570     libucrt:log10.obj
 0002:00007580       __real_ca3                 0000000180028580     libucrt:log10.obj
 0002:00007590       __real_ca4                 0000000180028590     libucrt:log10.obj
 0002:000075a0       __mask_lower               00000001800285a0     libucrt:log10.obj
 0002:000075b0       __flag_x_zero              00000001800285b0     libucrt:log10.obj
 0002:000075b4       __flag_x_neg               00000001800285b4     libucrt:log10.obj
 0002:000075b8       __flag_x_nan               00000001800285b8     libucrt:log10.obj
 0002:00008e10       __real@433fffffffffffff    0000000180029e10     libucrt:fpsr.obj
 0002:00008e18       __real@c33fffffffffffff    0000000180029e18     libucrt:fpsr.obj
 0002:00009578       initstate                  000000018002a578     scrypt_lib:sha256.obj
 0002:00009598       epoch                      000000018002a598     scrypt_lib:gettimeofday.obj
 0002:00009f88       $unwind$?_Raise@exception@stdext@@QEBAXXZ 000000018002af88     scrypt_common.obj
 0002:00009f88       $unwind$??0length_error@std@@QEAA@PEBD@Z 000000018002af88     libcpmt:xthrow.obj
 0002:00009f88       $unwind$?__mbrtowc_utf8@__crt_mbstring@@YA_KPEA_WPEBD_KPEAU_Mbstatet@@@Z 000000018002af88     libucrt:mbrtowc.obj
 0002:00009f88       $unwind$??$common_xtox_s@K_W@@YAHKQEA_W_KI_N@Z 000000018002af88     libucrt:xtoa.obj
 0002:00009f90       $unwind$??1?$basic_string@DU?$char_traits@D@std@@V?$allocator@D@2@@std@@QEAA@XZ 000000018002af90     scrypt_common.obj
 0002:00009f90       $unwind$??_Gbad_array_new_length@stdext@@UEAAPEAXI@Z 000000018002af90     scrypt_common.obj
 0002:00009f90       $unwind$??_Gexception@stdext@@UEAAPEAXI@Z 000000018002af90     scrypt_common.obj
 0002:00009f90       $unwind$?Execute@ScryptKDFVerifyAsyncWorker@@UEAAXXZ 000000018002af90     scrypt_kdf-verify_async.obj
 0002:00009f90       $unwind$?AsyncExecuteComplete@Nan@@YAXPEAUuv_work_s@@@Z 000000018002af90     scrypt_params_async.obj
 0002:00009f90       $unwind$?DloadAcquireSectionWriteAccess@@YAXXZ 000000018002af90     DelayImp:delayhlp.obj
 0002:00009f90       $unwind$__raise_securityfailure 000000018002af90     LIBCMT:gs_report.obj
 0002:00009f90       $unwind$??2@YAPEAX_K@Z     000000018002af90     LIBCMT:new_scalar.obj
 0002:00009f90       $unwind$??_Gtype_info@@UEAAPEAXI@Z 000000018002af90     LIBCMT:std_type_info_static.obj
 0002:00009f90       $unwind$??0bad_array_new_length@std@@QEAA@AEBV01@@Z 000000018002af90     LIBCMT:throw_bad_alloc.obj
 0002:00009f90       $unwind$__scrt_initialize_crt 000000018002af90     LIBCMT:utility.obj
 0002:00009f90       $unwind$__scrt_initialize_onexit_tables 000000018002af90     LIBCMT:utility.obj
 0002:00009f90       $unwind$__scrt_release_startup_lock 000000018002af90     LIBCMT:utility.obj
 0002:00009f90       $unwind$__scrt_uninitialize_crt 000000018002af90     LIBCMT:utility.obj
 0002:00009f90       $unwind$??0bad_alloc@std@@QEAA@AEBV01@@Z 000000018002af90     libcpmt:xthrow.obj
 0002:00009f90       $unwind$??0exception@std@@QEAA@AEBV01@@Z 000000018002af90     libcpmt:xthrow.obj
 0002:00009f90       $unwind$??0length_error@std@@QEAA@AEBV01@@Z 000000018002af90     libcpmt:xthrow.obj
 0002:00009f90       $unwind$??0logic_error@std@@QEAA@AEBV01@@Z 000000018002af90     libcpmt:xthrow.obj
 0002:00009f90       $unwind$_IsExceptionObjectToBeDestroyed 000000018002af90     libvcruntime:ehhelpers.obj
 0002:00009f90       $unwind$??0HandlerMap4@FH4@@QEAA@PEBUTryBlockMapEntry4@1@_KH@Z 000000018002af90     libvcruntime:frame.obj
 0002:00009f90       $unwind$??0bad_exception@std@@QEAA@AEBV01@@Z 000000018002af90     libvcruntime:frame.obj
 0002:00009f90       $unwind$?ExFilterRethrow@@YAHPEAU_EXCEPTION_POINTERS@@PEAUEHExceptionRecord@@PEAH@Z 000000018002af90     libvcruntime:frame.obj
 0002:00009f90       $unwind$__vcrt_uninitialize_locks 000000018002af90     libvcruntime:locks.obj
 0002:00009f90       $unwind$__vcrt_freeptd     000000018002af90     libvcruntime:per_thread_data.obj
 0002:00009f90       $unwind$_CreateFrameInfo   000000018002af90     libvcruntime:risctrnsctrl.obj
 0002:00009f90       $unwind$_SetImageBase      000000018002af90     libvcruntime:risctrnsctrl.obj
 0002:00009f90       $unwind$_SetThrowImageBase 000000018002af90     libvcruntime:risctrnsctrl.obj
 0002:00009f90       $unwind$__std_exception_destroy 000000018002af90     libvcruntime:std_exception.obj
 0002:00009f90       $unwind$__std_type_info_destroy_list 000000018002af90     libvcruntime:std_type_info.obj
 0002:00009f90       $unwind$__vcrt_FlsAlloc    000000018002af90     libvcruntime:winapi_downlevel.obj
 0002:00009f90       $unwind$__vcrt_FlsFree     000000018002af90     libvcruntime:winapi_downlevel.obj
 0002:00009f90       $unwind$__vcrt_FlsGetValue 000000018002af90     libvcruntime:winapi_downlevel.obj
 0002:00009f90       $unwind$_calloc_base       000000018002af90     libucrt:calloc_base.obj
 0002:00009f90       $unwind$_malloc_base       000000018002af90     libucrt:malloc_base.obj
 0002:00009f90       $unwind$_callnewh          000000018002af90     libucrt:new_handler.obj
 0002:00009f90       $unwind$initialize_pointers 000000018002af90     libucrt:initialization.obj
 0002:00009f90       $unwind$uninitialize_allocated_memory 000000018002af90     libucrt:initialization.obj
 0002:00009f90       $unwind$__acrt_initialize_locks 000000018002af90     libucrt:locks.obj
 0002:00009f90       $unwind$__acrt_uninitialize_locks 000000018002af90     libucrt:locks.obj
 0002:00009f90       $unwind$__acrt_freeptd     000000018002af90     libucrt:per_thread_data.obj
 0002:00009f90       $unwind$__acrt_getptd_head 000000018002af90     libucrt:per_thread_data.obj
 0002:00009f90       $unwind$__acrt_get_developer_information_policy 000000018002af90     libucrt:win_policies.obj
 0002:00009f90       $unwind$__acrt_get_process_end_policy 000000018002af90     libucrt:win_policies.obj
 0002:00009f90       $unwind$__acrt_get_windowing_model_policy 000000018002af90     libucrt:win_policies.obj
 0002:00009f90       $unwind$__acrt_AppPolicyGetProcessTerminationMethodInternal 000000018002af90     libucrt:winapi_thunks.obj
 0002:00009f90       $unwind$__acrt_AppPolicyGetShowDeveloperDiagnosticInternal 000000018002af90     libucrt:winapi_thunks.obj
 0002:00009f90       $unwind$__acrt_AppPolicyGetWindowingModelInternal 000000018002af90     libucrt:winapi_thunks.obj
 0002:00009f90       $unwind$__acrt_FlsAlloc    000000018002af90     libucrt:winapi_thunks.obj
 0002:00009f90       $unwind$__acrt_FlsFree     000000018002af90     libucrt:winapi_thunks.obj
 0002:00009f90       $unwind$__acrt_FlsGetValue 000000018002af90     libucrt:winapi_thunks.obj
 0002:00009f90       $unwind$__acrt_get_parent_window 000000018002af90     libucrt:winapi_thunks.obj
 0002:00009f90       $unwind$__acrt_uninitialize_winapi_thunks 000000018002af90     libucrt:winapi_thunks.obj
 0002:00009f90       $unwind$__acrt_update_locale_info 000000018002af90     libucrt:locale_update.obj
 0002:00009f90       $unwind$__acrt_update_multibyte_info 000000018002af90     libucrt:locale_update.obj
 0002:00009f90       $unwind$__acrt_allocate_buffer_for_argv 000000018002af90     libucrt:argv_parsing.obj
 0002:00009f90       $unwind$?exit_or_terminate_process@@YAXI@Z 000000018002af90     libucrt:exit.obj
 0002:00009f90       $unwind$?try_cor_exit_process@@YAXI@Z 000000018002af90     libucrt:exit.obj
 0002:00009f90       $unwind$__acrt_uninitialize_stdio 000000018002af90     libucrt:_file.obj
 0002:00009f90       $unwind$?stream_is_at_end_of_file_nolock@@YA_NV__crt_stdio_stream@@@Z 000000018002af90     libucrt:_flsbuf.obj
 0002:00009f90       $unwind$__acrt_stdio_free_buffer_nolock 000000018002af90     libucrt:_freebuf.obj
 0002:00009f90       $unwind$_fflush_nolock     000000018002af90     libucrt:fflush.obj
 0002:00009f90       $unwind$?state_case_normal@?$output_processor@DV?$stream_output_adapter@D@__crt_stdio_output@@V?$standard_base@DV?$stream_output_adapter@D@__crt_stdio_output@@@2@@__crt_stdio_output@@AEAA_NXZ 000000018002af90     libucrt:output.obj
 0002:00009f90       $unwind$?state_case_normal_tchar@?$output_processor@DV?$stream_output_adapter@D@__crt_stdio_output@@V?$standard_base@DV?$stream_output_adapter@D@__crt_stdio_output@@@2@@__crt_stdio_output@@AEAA_ND@Z 000000018002af90     libucrt:output.obj
 0002:00009f90       $unwind$?type_case_c_tchar@?$output_processor@DV?$stream_output_adapter@D@__crt_stdio_output@@V?$standard_base@DV?$stream_output_adapter@D@__crt_stdio_output@@@2@@__crt_stdio_output@@AEAA_ND@Z 000000018002af90     libucrt:output.obj
 0002:00009f90       $unwind$?type_case_s@?$output_processor@DV?$stream_output_adapter@D@__crt_stdio_output@@V?$standard_base@DV?$stream_output_adapter@D@__crt_stdio_output@@@2@@__crt_stdio_output@@AEAA_NXZ 000000018002af90     libucrt:output.obj
 0002:00009f90       $unwind$strcpy_s           000000018002af90     libucrt:strcpy_s.obj
 0002:00009f90       $unwind$wcscat_s           000000018002af90     libucrt:wcscat_s.obj
 0002:00009f90       $unwind$wcscpy_s           000000018002af90     libucrt:wcscpy_s.obj
 0002:00009f90       $unwind$_clrfp             000000018002af90     libucrt:fpctrl.obj
 0002:00009f90       $unwind$_set_statfp        000000018002af90     libucrt:fpctrl.obj
 0002:00009f90       $unwind$_clearfp           000000018002af90     libucrt:ieee.obj
 0002:00009f90       $unwind$fegetenv           000000018002af90     libucrt:fegetenv.obj
 0002:00009f90       $unwind$feholdexcept       000000018002af90     libucrt:feholdexcept.obj
 0002:00009f90       $unwind$fesetenv           000000018002af90     libucrt:fesetenv.obj
 0002:00009f98       $unwind$?_Doraise@bad_alloc@stdext@@MEBAXXZ 000000018002af98     scrypt_common.obj
 0002:00009f98       $unwind$strtol             000000018002af98     libucrt:strtox.obj
 0002:00009f98       $unwind$wcstol             000000018002af98     libucrt:strtox.obj
 0002:00009f98       $unwind$wctomb_s           000000018002af98     libucrt:wctomb.obj
 0002:00009f98       $unwind$_itow_s            000000018002af98     libucrt:xtoa.obj
 0002:00009f98       $unwind$_invalid_parameter_noinfo 000000018002af98     libucrt:invalid_parameter.obj
 0002:00009f98       $unwind$_invalid_parameter_noinfo_noreturn 000000018002af98     libucrt:invalid_parameter.obj
 0002:00009f98       $unwind$fflush             000000018002af98     libucrt:fflush.obj
 0002:00009f98       $unwind$_log10_special     000000018002af98     libucrt:log_special.obj
 0002:00009fa0       $unwind$?_Throw_bad_array_new_length@std@@YAXXZ 000000018002afa0     scrypt_common.obj
 0002:00009fb0       $cppxdata$?_Throw_bad_array_new_length@std@@YAXXZ 000000018002afb0     scrypt_common.obj
 0002:00009fb9       $stateUnwindMap$?_Throw_bad_array_new_length@std@@YAXXZ 000000018002afb9     scrypt_common.obj
 0002:00009fc0       $ip2state$?_Throw_bad_array_new_length@std@@YAXXZ 000000018002afc0     scrypt_common.obj
 0002:00009fc4       $unwind$?ScryptErrorDescr@?A0x816004c9@@YAPEBDI@Z 000000018002afc4     scrypt_common.obj
 0002:00009fe8       $cppxdata$?ScryptErrorDescr@?A0x816004c9@@YAPEBDI@Z 000000018002afe8     scrypt_common.obj
 0002:00009ff1       $stateUnwindMap$?ScryptErrorDescr@?A0x816004c9@@YAPEBDI@Z 000000018002aff1     scrypt_common.obj
 0002:0000a004       $ip2state$?ScryptErrorDescr@?A0x816004c9@@YAPEBDI@Z 000000018002b004     scrypt_common.obj
 0002:0000a014       $unwind$?ScryptError@NodeScrypt@@YA?AV?$Local@VValue@v8@@@v8@@I@Z 000000018002b014     scrypt_common.obj
 0002:0000a028       $cppxdata$?ScryptError@NodeScrypt@@YA?AV?$Local@VValue@v8@@@v8@@I@Z 000000018002b028     scrypt_common.obj
 0002:0000a031       $stateUnwindMap$?ScryptError@NodeScrypt@@YA?AV?$Local@VValue@v8@@@v8@@I@Z 000000018002b031     scrypt_common.obj
 0002:0000a03e       $ip2state$?ScryptError@NodeScrypt@@YA?AV?$Local@VValue@v8@@@v8@@I@Z 000000018002b03e     scrypt_common.obj
 0002:0000a04c       $unwind$?assign@?$basic_string@DU?$char_traits@D@std@@V?$allocator@D@2@@std@@QEAAAEAV12@QEBD@Z 000000018002b04c     scrypt_common.obj
 0002:0000a064       $unwind$??$_Reallocate_grow_by@V<lambda_65e615be2a453ca0576c979606f46740>@@PEBD_K@?$basic_string@DU?$char_traits@D@std@@V?$allocator@D@2@@std@@AEAAAEAV01@_KV<lambda_65e615be2a453ca0576c979606f46740>@@PEBD_K@Z 000000018002b064     scrypt_common.obj
 0002:0000a074       $chain$3$??$_Reallocate_grow_by@V<lambda_65e615be2a453ca0576c979606f46740>@@PEBD_K@?$basic_string@DU?$char_traits@D@std@@V?$allocator@D@2@@std@@AEAAAEAV01@_KV<lambda_65e615be2a453ca0576c979606f46740>@@PEBD_K@Z 000000018002b074     scrypt_common.obj
 0002:0000a094       $chain$5$??$_Reallocate_grow_by@V<lambda_65e615be2a453ca0576c979606f46740>@@PEBD_K@?$basic_string@DU?$char_traits@D@std@@V?$allocator@D@2@@std@@AEAAAEAV01@_KV<lambda_65e615be2a453ca0576c979606f46740>@@PEBD_K@Z 000000018002b094     scrypt_common.obj
 0002:0000a094       $chain$7$??$_Reallocate_grow_by@V<lambda_65e615be2a453ca0576c979606f46740>@@PEBD_K@?$basic_string@DU?$char_traits@D@std@@V?$allocator@D@2@@std@@AEAAAEAV01@_KV<lambda_65e615be2a453ca0576c979606f46740>@@PEBD_K@Z 000000018002b094     scrypt_common.obj
 0002:0000a0b4       $chain$6$??$_Reallocate_grow_by@V<lambda_65e615be2a453ca0576c979606f46740>@@PEBD_K@?$basic_string@DU?$char_traits@D@std@@V?$allocator@D@2@@std@@AEAAAEAV01@_KV<lambda_65e615be2a453ca0576c979606f46740>@@PEBD_K@Z 000000018002b0b4     scrypt_common.obj
 0002:0000a0c4       $unwind$?_Xlen@?$basic_string@DU?$char_traits@D@std@@V?$allocator@D@2@@std@@CAXXZ 000000018002b0c4     scrypt_common.obj
 0002:0000a0c4       $unwind$?load_exe_hook@@YAP6A_JXZIPEAUDelayLoadInfo@@@Z 000000018002b0c4     win_delay_load_hook.obj
 0002:0000a0c4       $unwind$?DloadReleaseSectionWriteAccess@@YAXXZ 000000018002b0c4     DelayImp:delayhlp.obj
 0002:0000a0c4       $unwind$__scrt_initialize_default_local_stdio_options 000000018002b0c4     LIBCMT:default_local_stdio_options.obj
 0002:0000a0c4       $unwind$?dllmain_crt_dispatch@@YAHQEAUHINSTANCE__@@KQEAX@Z 000000018002b0c4     LIBCMT:dll_dllmain.obj
 0002:0000a0c4       $unwind$__report_rangecheckfailure 000000018002b0c4     LIBCMT:gs_report.obj
 0002:0000a0c4       $unwind$__GSHandlerCheck   000000018002b0c4     LIBCMT:gshandler.obj
 0002:0000a0c4       $unwind$__scrt_acquire_startup_lock 000000018002b0c4     LIBCMT:utility.obj
 0002:0000a0c4       $unwind$__scrt_dllmain_after_initialize_c 000000018002b0c4     LIBCMT:utility.obj
 0002:0000a0c4       $unwind$__scrt_dllmain_before_initialize_c 000000018002b0c4     LIBCMT:utility.obj
 0002:0000a0c4       $unwind$__scrt_dllmain_crt_thread_attach 000000018002b0c4     LIBCMT:utility.obj
 0002:0000a0c4       $unwind$__scrt_dllmain_crt_thread_detach 000000018002b0c4     LIBCMT:utility.obj
 0002:0000a0c4       $unwind$__scrt_dllmain_uninitialize_c 000000018002b0c4     LIBCMT:utility.obj
 0002:0000a0c4       $unwind$__scrt_dllmain_uninitialize_critical 000000018002b0c4     LIBCMT:utility.obj
 0002:0000a0c4       $unwind$__std_terminate    000000018002b0c4     libvcruntime:ehhelpers.obj
 0002:0000a0c4       $unwind$__vcrt_initialize  000000018002b0c4     libvcruntime:initialization.obj
 0002:0000a0c4       $unwind$__vcrt_thread_attach 000000018002b0c4     libvcruntime:initialization.obj
 0002:0000a0c4       $unwind$__vcrt_thread_detach 000000018002b0c4     libvcruntime:initialization.obj
 0002:0000a0c4       $unwind$__vcrt_uninitialize 000000018002b0c4     libvcruntime:initialization.obj
 0002:0000a0c4       $unwind$__vcrt_uninitialize_critical 000000018002b0c4     libvcruntime:initialization.obj
 0002:0000a0c4       $unwind$__vcrt_initialize_locks 000000018002b0c4     libvcruntime:locks.obj
 0002:0000a0c4       $unwind$__vcrt_freefls     000000018002b0c4     libvcruntime:per_thread_data.obj
 0002:0000a0c4       $unwind$__vcrt_getptd      000000018002b0c4     libvcruntime:per_thread_data.obj
 0002:0000a0c4       $unwind$__vcrt_initialize_ptd 000000018002b0c4     libvcruntime:per_thread_data.obj
 0002:0000a0c4       $unwind$__vcrt_uninitialize_ptd 000000018002b0c4     libvcruntime:per_thread_data.obj
 0002:0000a0c4       $unwind$_purecall          000000018002b0c4     libvcruntime:purevirt.obj
 0002:0000a0c4       $unwind$?FrameUnwindToEmptyState@__FrameHandler4@@SAXPEA_KPEAU_xDISPATCHER_CONTEXT@@PEAUFuncInfo4@FH4@@@Z 000000018002b0c4     libvcruntime:risctrnsctrl.obj
 0002:0000a0c4       $unwind$_GetImageBase      000000018002b0c4     libvcruntime:risctrnsctrl.obj
 0002:0000a0c4       $unwind$_GetThrowImageBase 000000018002b0c4     libvcruntime:risctrnsctrl.obj
 0002:0000a0c4       $unwind$__dcrt_terminate_console_output 000000018002b0c4     libucrt:initcon.obj
 0002:0000a0c4       $unwind$??$uninitialize_environment_internal@D@@YAXAEAPEAPEAD@Z 000000018002b0c4     libucrt:environment_initialization.obj
 0002:0000a0c4       $unwind$??$uninitialize_environment_internal@_W@@YAXAEAPEAPEA_W@Z 000000018002b0c4     libucrt:environment_initialization.obj
 0002:0000a0c4       $unwind$__dcrt_uninitialize_environments_nolock 000000018002b0c4     libucrt:environment_initialization.obj
 0002:0000a0c4       $unwind$?__c32rtomb_utf8@__crt_mbstring@@YA_KPEAD_UPEAU_Mbstatet@@@Z 000000018002b0c4     libucrt:c32rtomb.obj
 0002:0000a0c4       $unwind$__acrt_initialize_heap 000000018002b0c4     libucrt:heap_handle.obj
 0002:0000a0c4       $unwind$_msize_base        000000018002b0c4     libucrt:msize.obj
 0002:0000a0c4       $unwind$?initialize_multibyte@@YAHXZ 000000018002b0c4     libucrt:multibyte_initializer.obj
 0002:0000a0c4       $unwind$__acrt_thread_attach 000000018002b0c4     libucrt:initialization.obj
 0002:0000a0c4       $unwind$__acrt_thread_detach 000000018002b0c4     libucrt:initialization.obj
 0002:0000a0c4       $unwind$__acrt_uninitialize 000000018002b0c4     libucrt:initialization.obj
 0002:0000a0c4       $unwind$__acrt_uninitialize_critical 000000018002b0c4     libucrt:initialization.obj
 0002:0000a0c4       $unwind$initialize_c       000000018002b0c4     libucrt:initialization.obj
 0002:0000a0c4       $unwind$uninitialize_allocated_io_buffers 000000018002b0c4     libucrt:initialization.obj
 0002:0000a0c4       $unwind$uninitialize_environment 000000018002b0c4     libucrt:initialization.obj
 0002:0000a0c4       $unwind$__acrt_initialize_ptd 000000018002b0c4     libucrt:per_thread_data.obj
 0002:0000a0c4       $unwind$__acrt_uninitialize_ptd 000000018002b0c4     libucrt:per_thread_data.obj
 0002:0000a0c4       $unwind$__acrt_AreFileApisANSI 000000018002b0c4     libucrt:winapi_thunks.obj
 0002:0000a0c4       $unwind$__pctype_func      000000018002b0c4     libucrt:ctype.obj
 0002:0000a0c4       $unwind$__acrt_release_locale_ref 000000018002b0c4     libucrt:locale_refcounting.obj
 0002:0000a0c4       $unwind$_isatty            000000018002b0c4     libucrt:isatty.obj
 0002:0000a0c4       $unwind$_get_osfhandle     000000018002b0c4     libucrt:osfinfo.obj
 0002:0000a0c4       $unwind$__acrt_initialize_multibyte 000000018002b0c4     libucrt:mbctype.obj
 0002:0000a0c4       $unwind$__acrt_update_thread_multibyte_data 000000018002b0c4     libucrt:mbctype.obj
 0002:0000a0c4       $unwind$__doserrno         000000018002b0c4     libucrt:errno.obj
 0002:0000a0c4       $unwind$_errno             000000018002b0c4     libucrt:errno.obj
 0002:0000a0c4       $unwind$_invoke_watson     000000018002b0c4     libucrt:invalid_parameter.obj
 0002:0000a0c4       $unwind$_set_error_mode    000000018002b0c4     libucrt:set_error_mode.obj
 0002:0000a0c4       $unwind$abort              000000018002b0c4     libucrt:abort.obj
 0002:0000a0c4       $unwind$__acrt_initialize_command_line 000000018002b0c4     libucrt:argv_data.obj
 0002:0000a0c4       $unwind$_fileno            000000018002b0c4     libucrt:fileno.obj
 0002:0000a0c4       $unwind$?state_case_size@?$output_processor@DV?$stream_output_adapter@D@__crt_stdio_output@@V?$standard_base@DV?$stream_output_adapter@D@__crt_stdio_output@@@2@@__crt_stdio_output@@AEAA_NXZ 000000018002b0c4     libucrt:output.obj
 0002:0000a0c4       $unwind$?state_case_size@?$output_processor@_WV?$stream_output_adapter@_W@__crt_stdio_output@@V?$standard_base@_WV?$stream_output_adapter@_W@__crt_stdio_output@@@2@@__crt_stdio_output@@AEAA_NXZ 000000018002b0c4     libucrt:output.obj
 0002:0000a0c4       $unwind$?state_case_size@?$output_processor@_WV?$string_output_adapter@_W@__crt_stdio_output@@V?$standard_base@_WV?$string_output_adapter@_W@__crt_stdio_output@@@2@@__crt_stdio_output@@AEAA_NXZ 000000018002b0c4     libucrt:output.obj
 0002:0000a0c4       $unwind$?validate_stream_is_ansi_if_required@?$__acrt_stdio_char_traits@D@@SA_NQEAU_iobuf@@@Z 000000018002b0c4     libucrt:output.obj
 0002:0000a0c4       $unwind$_stricmp           000000018002b0c4     libucrt:stricmp.obj
 0002:0000a0c4       $unwind$_statfp            000000018002b0c4     libucrt:fpctrl.obj
 0002:0000a0c4       $unwind$_set_errno_from_matherr 000000018002b0c4     libucrt:fpexcept.obj
 0002:0000a0cc       $unwind$??$_Reallocate_grow_by@V<lambda_f3a66ab6a0570788f31503db83886f49>@@_KPEBD_K@?$basic_string@DU?$char_traits@D@std@@V?$allocator@D@2@@std@@AEAAAEAV01@_KV<lambda_f3a66ab6a0570788f31503db83886f49>@@_KPEBD2@Z 000000018002b0cc     scrypt_common.obj
 0002:0000a0d8       $chain$2$??$_Reallocate_grow_by@V<lambda_f3a66ab6a0570788f31503db83886f49>@@_KPEBD_K@?$basic_string@DU?$char_traits@D@std@@V?$allocator@D@2@@std@@AEAAAEAV01@_KV<lambda_f3a66ab6a0570788f31503db83886f49>@@_KPEBD2@Z 000000018002b0d8     scrypt_common.obj
 0002:0000a0f4       $chain$4$??$_Reallocate_grow_by@V<lambda_f3a66ab6a0570788f31503db83886f49>@@_KPEBD_K@?$basic_string@DU?$char_traits@D@std@@V?$allocator@D@2@@std@@AEAAAEAV01@_KV<lambda_f3a66ab6a0570788f31503db83886f49>@@_KPEBD2@Z 000000018002b0f4     scrypt_common.obj
 0002:0000a0f4       $chain$6$??$_Reallocate_grow_by@V<lambda_f3a66ab6a0570788f31503db83886f49>@@_KPEBD_K@?$basic_string@DU?$char_traits@D@std@@V?$allocator@D@2@@std@@AEAAAEAV01@_KV<lambda_f3a66ab6a0570788f31503db83886f49>@@_KPEBD2@Z 000000018002b0f4     scrypt_common.obj
 0002:0000a110       $chain$5$??$_Reallocate_grow_by@V<lambda_f3a66ab6a0570788f31503db83886f49>@@_KPEBD_K@?$basic_string@DU?$char_traits@D@std@@V?$allocator@D@2@@std@@AEAAAEAV01@_KV<lambda_f3a66ab6a0570788f31503db83886f49>@@_KPEBD2@Z 000000018002b110     scrypt_common.obj
 0002:0000a120       $unwind$??0AsyncResource@Nan@@QEAA@PEBDV?$Local@VObject@v8@@@v8@@@Z 000000018002b120     scrypt_params_async.obj
 0002:0000a134       $unwind$??1AsyncResource@Nan@@QEAA@XZ 000000018002b134     scrypt_params_async.obj
 0002:0000a144       $cppxdata$??1AsyncResource@Nan@@QEAA@XZ 000000018002b144     scrypt_params_async.obj
 0002:0000a149       $ip2state$??1AsyncResource@Nan@@QEAA@XZ 000000018002b149     scrypt_params_async.obj
 0002:0000a14c       $unwind$?Call@Callback@Nan@@QEBA?AV?$Local@VValue@v8@@@v8@@HQEAV34@@Z 000000018002b14c     scrypt_params_async.obj
 0002:0000a174       $cppxdata$?Call@Callback@Nan@@QEBA?AV?$Local@VValue@v8@@@v8@@HQEAV34@@Z 000000018002b174     scrypt_params_async.obj
 0002:0000a17d       $stateUnwindMap$?Call@Callback@Nan@@QEBA?AV?$Local@VValue@v8@@@v8@@HQEAV34@@Z 000000018002b17d     scrypt_params_async.obj
 0002:0000a197       $ip2state$?Call@Callback@Nan@@QEBA?AV?$Local@VValue@v8@@@v8@@HQEAV34@@Z 000000018002b197     scrypt_params_async.obj
 0002:0000a1ac       $unwind$?Call_@Callback@Nan@@AEBA?AV?$MaybeLocal@VValue@v8@@@v8@@PEAVIsolate@4@V?$Local@VObject@v8@@@4@HQEAV?$Local@VValue@v8@@@4@PEAVAsyncResource@2@@Z 000000018002b1ac     scrypt_params_async.obj
 0002:0000a1c4       $cppxdata$?Call_@Callback@Nan@@AEBA?AV?$MaybeLocal@VValue@v8@@@v8@@PEAVIsolate@4@V?$Local@VObject@v8@@@4@HQEAV?$Local@VValue@v8@@@4@PEAVAsyncResource@2@@Z 000000018002b1c4     scrypt_params_async.obj
 0002:0000a1cd       $stateUnwindMap$?Call_@Callback@Nan@@AEBA?AV?$MaybeLocal@VValue@v8@@@v8@@PEAVIsolate@4@V?$Local@VObject@v8@@@4@HQEAV?$Local@VValue@v8@@@4@PEAVAsyncResource@2@@Z 000000018002b1cd     scrypt_params_async.obj
 0002:0000a1d4       $ip2state$?Call_@Callback@Nan@@AEBA?AV?$MaybeLocal@VValue@v8@@@v8@@PEAVIsolate@4@V?$Local@VObject@v8@@@4@HQEAV?$Local@VValue@v8@@@4@PEAVAsyncResource@2@@Z 000000018002b1d4     scrypt_params_async.obj
 0002:0000a1dc       $unwind$??1AsyncWorker@Nan@@UEAA@XZ 000000018002b1dc     scrypt_params_async.obj
 0002:0000a1f0       $cppxdata$??1AsyncWorker@Nan@@UEAA@XZ 000000018002b1f0     scrypt_params_async.obj
 0002:0000a1f9       $stateUnwindMap$??1AsyncWorker@Nan@@UEAA@XZ 000000018002b1f9     scrypt_params_async.obj
 0002:0000a1ff       $ip2state$??1AsyncWorker@Nan@@UEAA@XZ 000000018002b1ff     scrypt_params_async.obj
 0002:0000a20c       $unwind$?WorkComplete@AsyncWorker@Nan@@UEAAXXZ 000000018002b20c     scrypt_params_async.obj
 0002:0000a220       $cppxdata$?WorkComplete@AsyncWorker@Nan@@UEAAXXZ 000000018002b220     scrypt_params_async.obj
 0002:0000a229       $stateUnwindMap$?WorkComplete@AsyncWorker@Nan@@UEAAXXZ 000000018002b229     scrypt_params_async.obj
 0002:0000a229       $stateUnwindMap$?WorkComplete@ScryptAsyncWorker@@UEAAXXZ 000000018002b229     scrypt_params_async.obj
 0002:0000a235       $ip2state$?WorkComplete@AsyncWorker@Nan@@UEAAXXZ 000000018002b235     scrypt_params_async.obj
 0002:0000a240       $unwind$?HandleOKCallback@AsyncWorker@Nan@@MEAAXXZ 000000018002b240     scrypt_params_async.obj
 0002:0000a254       $cppxdata$?HandleOKCallback@AsyncWorker@Nan@@MEAAXXZ 000000018002b254     scrypt_params_async.obj
 0002:0000a25d       $stateUnwindMap$?HandleOKCallback@ScryptHashAsyncWorker@@UEAAXXZ 000000018002b25d     scrypt_hash_async.obj
 0002:0000a25d       $stateUnwindMap$?HandleOKCallback@ScryptKDFAsyncWorker@@UEAAXXZ 000000018002b25d     scrypt_kdf_async.obj
 0002:0000a25d       $stateUnwindMap$?HandleErrorCallback@AsyncWorker@Nan@@MEAAXXZ 000000018002b25d     scrypt_params_async.obj
 0002:0000a25d       $stateUnwindMap$?HandleOKCallback@AsyncWorker@Nan@@MEAAXXZ 000000018002b25d     scrypt_params_async.obj
 0002:0000a264       $ip2state$?HandleOKCallback@AsyncWorker@Nan@@MEAAXXZ 000000018002b264     scrypt_params_async.obj
 0002:0000a26c       $unwind$?HandleErrorCallback@AsyncWorker@Nan@@MEAAXXZ 000000018002b26c     scrypt_params_async.obj
 0002:0000a280       $cppxdata$?HandleErrorCallback@AsyncWorker@Nan@@MEAAXXZ 000000018002b280     scrypt_params_async.obj
 0002:0000a289       $ip2state$?HandleErrorCallback@AsyncWorker@Nan@@MEAAXXZ 000000018002b289     scrypt_params_async.obj
 0002:0000a294       $unwind$??_GScryptHashAsyncWorker@@UEAAPEAXI@Z 000000018002b294     scrypt_hash_async.obj
 0002:0000a294       $unwind$??_GScryptKDFVerifyAsyncWorker@@UEAAPEAXI@Z 000000018002b294     scrypt_kdf-verify_async.obj
 0002:0000a294       $unwind$??_GScryptKDFAsyncWorker@@UEAAPEAXI@Z 000000018002b294     scrypt_kdf_async.obj
 0002:0000a294       $unwind$??_GAsyncWorker@Nan@@UEAAPEAXI@Z 000000018002b294     scrypt_params_async.obj
 0002:0000a294       $unwind$??_GScryptAsyncWorker@@UEAAPEAXI@Z 000000018002b294     scrypt_params_async.obj
 0002:0000a294       $unwind$??_GScryptParamsAsyncWorker@@UEAAPEAXI@Z 000000018002b294     scrypt_params_async.obj
 0002:0000a294       $unwind$?DloadGetSRWLockFunctionPointers@@YAEXZ 000000018002b294     DelayImp:delayhlp.obj
 0002:0000a294       $unwind$_RTC_Initialize    000000018002b294     LIBCMT:initsect.obj
 0002:0000a294       $unwind$_RTC_Terminate     000000018002b294     LIBCMT:initsect.obj
 0002:0000a294       $unwind$??_Gbad_array_new_length@std@@UEAAPEAXI@Z 000000018002b294     LIBCMT:throw_bad_alloc.obj
 0002:0000a294       $unwind$??_Gbad_alloc@std@@UEAAPEAXI@Z 000000018002b294     libcpmt:xthrow.obj
 0002:0000a294       $unwind$??_Gexception@std@@UEAAPEAXI@Z 000000018002b294     libcpmt:xthrow.obj
 0002:0000a294       $unwind$??_Glength_error@std@@UEAAPEAXI@Z 000000018002b294     libcpmt:xthrow.obj
 0002:0000a294       $unwind$??_Glogic_error@std@@UEAAPEAXI@Z 000000018002b294     libcpmt:xthrow.obj
 0002:0000a294       $unwind$__FrameUnwindFilter 000000018002b294     libvcruntime:ehhelpers.obj
 0002:0000a294       $unwind$??_Gbad_exception@std@@UEAAPEAXI@Z 000000018002b294     libvcruntime:frame.obj
 0002:0000a294       $unwind$?ExFilterRethrowFH4@@YAHPEAU_EXCEPTION_POINTERS@@PEAUEHExceptionRecord@@HPEAH@Z 000000018002b294     libvcruntime:frame.obj
 0002:0000a294       $unwind$_FindAndUnlinkFrame 000000018002b294     libvcruntime:risctrnsctrl.obj
 0002:0000a294       $unwind$__vcrt_FlsSetValue 000000018002b294     libvcruntime:winapi_downlevel.obj
 0002:0000a294       $unwind$??$common_initialize_environment_nolock@D@@YAHXZ 000000018002b294     libucrt:environment_initialization.obj
 0002:0000a294       $unwind$__acrt_fp_strflt_to_string 000000018002b294     libucrt:_fptostr.obj
 0002:0000a294       $unwind$_realloc_base      000000018002b294     libucrt:realloc_base.obj
 0002:0000a294       $unwind$?replace_current_thread_locale_nolock@@YAXQEAU__acrt_ptd@@QEAU__crt_locale_data@@@Z 000000018002b294     libucrt:per_thread_data.obj
 0002:0000a294       $unwind$__acrt_execute_uninitializers 000000018002b294     libucrt:shared_initialization.obj
 0002:0000a294       $unwind$__acrt_FlsSetValue 000000018002b294     libucrt:winapi_thunks.obj
 0002:0000a294       $unwind$__acrt_LocaleNameToLCID 000000018002b294     libucrt:winapi_thunks.obj
 0002:0000a294       $unwind$__acrt_can_show_message_box 000000018002b294     libucrt:winapi_thunks.obj
 0002:0000a294       $unwind$_updatetlocinfoEx_nolock 000000018002b294     libucrt:locale_refcounting.obj
 0002:0000a294       $unwind$_close_nolock      000000018002b294     libucrt:close.obj
 0002:0000a294       $unwind$__acrt_uninitialize_lowio 000000018002b294     libucrt:ioinit.obj
 0002:0000a294       $unwind$__acrt_errno_map_os_error 000000018002b294     libucrt:errno.obj
 0002:0000a294       $unwind$_initterm_e        000000018002b294     libucrt:initterm.obj
 0002:0000a294       $unwind$__acrt_stdio_allocate_buffer_nolock 000000018002b294     libucrt:_getbuf.obj
 0002:0000a294       $unwind$__acrt_stdio_begin_temporary_buffering_nolock 000000018002b294     libucrt:_sftbuf.obj
 0002:0000a294       $unwind$_fclose_nolock     000000018002b294     libucrt:fclose.obj
 0002:0000a294       $unwind$strncpy_s          000000018002b294     libucrt:strncpy_s.obj
 0002:0000a294       $unwind$wcsncat_s          000000018002b294     libucrt:wcsncat_s.obj
 0002:0000a2a0       $unwind$??0ScryptAsyncWorker@@QEAA@PEAVCallback@Nan@@@Z 000000018002b2a0     scrypt_params_async.obj
 0002:0000a2b8       $cppxdata$??0ScryptAsyncWorker@@QEAA@PEAVCallback@Nan@@@Z 000000018002b2b8     scrypt_params_async.obj
 0002:0000a2c1       $stateUnwindMap$??0ScryptAsyncWorker@@QEAA@PEAVCallback@Nan@@@Z 000000018002b2c1     scrypt_params_async.obj
 0002:0000a2cd       $ip2state$??0ScryptAsyncWorker@@QEAA@PEAVCallback@Nan@@@Z 000000018002b2cd     scrypt_params_async.obj
 0002:0000a2d8       $unwind$?dtor$0@?0???0ScryptHashAsyncWorker@@QEAA@AEBV?$FunctionCallbackInfo@VValue@v8@@@Nan@@@Z@4HA 000000018002b2d8     scrypt_hash_async.obj
 0002:0000a2d8       $unwind$?dtor$0@?0??hash@@YAXAEBV?$FunctionCallbackInfo@VValue@v8@@@Nan@@@Z@4HA 000000018002b2d8     scrypt_hash_async.obj
 0002:0000a2d8       $unwind$?dtor$0@?0???0ScryptKDFVerifyAsyncWorker@@QEAA@AEBV?$FunctionCallbackInfo@VValue@v8@@@Nan@@@Z@4HA 000000018002b2d8     scrypt_kdf-verify_async.obj
 0002:0000a2d8       $unwind$?dtor$0@?0??kdfVerify@@YAXAEBV?$FunctionCallbackInfo@VValue@v8@@@Nan@@@Z@4HA 000000018002b2d8     scrypt_kdf-verify_async.obj
 0002:0000a2d8       $unwind$?dtor$0@?0???0ScryptKDFAsyncWorker@@QEAA@AEBV?$FunctionCallbackInfo@VValue@v8@@@Nan@@@Z@4HA 000000018002b2d8     scrypt_kdf_async.obj
 0002:0000a2d8       $unwind$?dtor$0@?0??kdf@@YAXAEBV?$FunctionCallbackInfo@VValue@v8@@@Nan@@@Z@4HA 000000018002b2d8     scrypt_kdf_async.obj
 0002:0000a2d8       $unwind$?dtor$0@?0??params@@YAXAEBV?$FunctionCallbackInfo@VValue@v8@@@Nan@@@Z@4HA 000000018002b2d8     scrypt_params_async.obj
 0002:0000a2d8       $unwind$?dtor$1@?0??params@@YAXAEBV?$FunctionCallbackInfo@VValue@v8@@@Nan@@@Z@4HA 000000018002b2d8     scrypt_params_async.obj
 0002:0000a2d8       $unwind$?dtor$2@?0???0ScryptAsyncWorker@@QEAA@PEAVCallback@Nan@@@Z@4HA 000000018002b2d8     scrypt_params_async.obj
 0002:0000a2d8       $unwind$?fin$0@?0??dllmain_crt_process_attach@@YAHQEAUHINSTANCE__@@QEAX@Z@4HA 000000018002b2d8     LIBCMT:dll_dllmain.obj
 0002:0000a2d8       $unwind$?fin$0@?0??dllmain_crt_process_detach@@YAH_N@Z@4HA 000000018002b2d8     LIBCMT:dll_dllmain.obj
 0002:0000a2d8       $unwind$_IsNonwritableInCurrentImage$filt$0 000000018002b2d8     LIBCMT:pesect.obj
 0002:0000a2d8       $unwind$?filt$0@?0??CxxCallCatchBlock@__FrameHandler4@@SAPEAXPEAU_EXCEPTION_RECORD@@@Z@4HA 000000018002b2d8     libvcruntime:frame.obj
 0002:0000a2d8       $unwind$_query_new_handler$fin$0 000000018002b2d8     libucrt:new_handler.obj
 0002:0000a2d8       $unwind$?fin$0@?0???$?RV<lambda_0ae27a3a962d80f24befdcbee591983d>@@AEAV<lambda_8d0ee55de4b1038c4002e0adecdf1839>@@V<lambda_dc504788e8f1664fe9b84e20bfb512f2>@@@?$__crt_seh_guarded_call@X@@QEAAX$$QEAV<lambda_0ae27a3a962d80f24befdcbee591983d>@@AEAV<lambda_8d0ee55de4b1038c4002e0adecdf1839>@@$$QEAV<lambda_dc504788e8f1664fe9b84e20bfb512f2>@@@Z@4HA 000000018002b2d8     libucrt:per_thread_data.obj
 0002:0000a2d8       $unwind$?fin$0@?0???$?RV<lambda_2d41944a1d46af3157314b8a01080d33>@@AEAV<lambda_8f455de75cd7d7f24b4096f044d8b9e6>@@V<lambda_aa500f224e6afead328df44964fe2772>@@@?$__crt_seh_guarded_call@X@@QEAAX$$QEAV<lambda_2d41944a1d46af3157314b8a01080d33>@@AEAV<lambda_8f455de75cd7d7f24b4096f044d8b9e6>@@$$QEAV<lambda_aa500f224e6afead328df44964fe2772>@@@Z@4HA 000000018002b2d8     libucrt:per_thread_data.obj
 0002:0000a2d8       $unwind$?fin$0@?0???$?RV<lambda_aa87e3671a710a21b5dc78c0bdf72e11>@@AEAV<lambda_92619d2358a28f41a33ba319515a20b9>@@V<lambda_6992ecaafeb10aed2b74cb1fae11a551>@@@?$__crt_seh_guarded_call@X@@QEAAX$$QEAV<lambda_aa87e3671a710a21b5dc78c0bdf72e11>@@AEAV<lambda_92619d2358a28f41a33ba319515a20b9>@@$$QEAV<lambda_6992ecaafeb10aed2b74cb1fae11a551>@@@Z@4HA 000000018002b2d8     libucrt:per_thread_data.obj
 0002:0000a2d8       $unwind$?fin$0@?0???$?RV<lambda_f2e299630e499de9f9a165e60fcd3db5>@@AEAV<lambda_2ae9d31cdba2644fcbeaf08da7c24588>@@V<lambda_40d01ff24d0e7b3814fdbdcee8eab3c7>@@@?$__crt_seh_guarded_call@X@@QEAAX$$QEAV<lambda_f2e299630e499de9f9a165e60fcd3db5>@@AEAV<lambda_2ae9d31cdba2644fcbeaf08da7c24588>@@$$QEAV<lambda_40d01ff24d0e7b3814fdbdcee8eab3c7>@@@Z@4HA 000000018002b2d8     libucrt:per_thread_data.obj
 0002:0000a2d8       $unwind$__acrt_update_thread_locale_data$fin$0 000000018002b2d8     libucrt:locale_refcounting.obj
 0002:0000a2d8       $unwind$?fin$0@?0???$?RV<lambda_410d79af7f07d98d83a3f525b3859a53>@@AEAV<lambda_3e16ef9562a7dcce91392c22ab16ea36>@@V<lambda_38119f0e861e05405d8a144b9b982f0a>@@@?$__crt_seh_guarded_call@X@@QEAAX$$QEAV<lambda_410d79af7f07d98d83a3f525b3859a53>@@AEAV<lambda_3e16ef9562a7dcce91392c22ab16ea36>@@$$QEAV<lambda_38119f0e861e05405d8a144b9b982f0a>@@@Z@4HA 000000018002b2d8     libucrt:wsetlocale.obj
 0002:0000a2d8       $unwind$?fin$0@?0???$?RV<lambda_751a882b2c74d4b022dec766aa51a29a>@@AEAV<lambda_628dfdc04ba53c8bfc02c9951375f3f5>@@V<lambda_f6c7be5f7998530c34de24c7437d6b54>@@@?$__crt_seh_guarded_call@H@@QEAAH$$QEAV<lambda_751a882b2c74d4b022dec766aa51a29a>@@AEAV<lambda_628dfdc04ba53c8bfc02c9951375f3f5>@@$$QEAV<lambda_f6c7be5f7998530c34de24c7437d6b54>@@@Z@4HA 000000018002b2d8     libucrt:close.obj
 0002:0000a2d8       $unwind$?fin$0@?0???$?RV<lambda_a37b2b86f63e897a80ea819b0eb08c01>@@AEAV<lambda_38ce7e780aa69e748d6df282ebc68efe>@@V<lambda_99fb1378e971ab6e7edea83e3a7a83a2>@@@?$__crt_seh_guarded_call@H@@QEAAH$$QEAV<lambda_a37b2b86f63e897a80ea819b0eb08c01>@@AEAV<lambda_38ce7e780aa69e748d6df282ebc68efe>@@$$QEAV<lambda_99fb1378e971ab6e7edea83e3a7a83a2>@@@Z@4HA 000000018002b2d8     libucrt:commit.obj
 0002:0000a2d8       $unwind$__acrt_initialize_lowio$fin$0 000000018002b2d8     libucrt:ioinit.obj
 0002:0000a2d8       $unwind$?fin$0@?0???$common_lseek@_J@@YA_JH_JH@Z@4HA 000000018002b2d8     libucrt:lseek.obj
 0002:0000a2d8       $unwind$__acrt_lowio_ensure_fh_exists$fin$0 000000018002b2d8     libucrt:osfinfo.obj
 0002:0000a2d8       $unwind$_write$fin$0       000000018002b2d8     libucrt:write.obj
 0002:0000a2d8       $unwind$?fin$0@?0???$?RV<lambda_efdfa57d1f175319df784efa44bb7b81>@@AEAV<lambda_5f0a4c1567f8adc6734073e5d1e1b35c>@@V<lambda_2e8a7d3640ea6ccb4c2413664c2db6fd>@@@?$__crt_seh_guarded_call@X@@QEAAX$$QEAV<lambda_efdfa57d1f175319df784efa44bb7b81>@@AEAV<lambda_5f0a4c1567f8adc6734073e5d1e1b35c>@@$$QEAV<lambda_2e8a7d3640ea6ccb4c2413664c2db6fd>@@@Z@4HA 000000018002b2d8     libucrt:mbctype.obj
 0002:0000a2d8       $unwind$?fin$0@?0??update_thread_multibyte_data_internal@@YAPEAU__crt_multibyte_data@@QEAU__acrt_ptd@@QEAPEAU1@@Z@4HA 000000018002b2d8     libucrt:mbctype.obj
 0002:0000a2d8       $unwind$?fin$0@?0???$?RV<lambda_450d765d439847d4c735a33c368b5fc0>@@AEAV<lambda_44731a7d0e6d81c3e6aa82d741081786>@@V<lambda_601a2a7da3b7a96e9554ac7215c4b07c>@@@?$__crt_seh_guarded_call@P6AXH@Z@@QEAAP6AXH@Z$$QEAV<lambda_450d765d439847d4c735a33c368b5fc0>@@AEAV<lambda_44731a7d0e6d81c3e6aa82d741081786>@@$$QEAV<lambda_601a2a7da3b7a96e9554ac7215c4b07c>@@@Z@4HA 000000018002b2d8     libucrt:signal.obj
 0002:0000a2d8       $unwind$raise$fin$0        000000018002b2d8     libucrt:signal.obj
 0002:0000a2d8       $unwind$?filt$0@?0???R<lambda_6e4b09c48022b2350581041d5f6b0c4c>@@QEBA@XZ@4HA 000000018002b2d8     libucrt:exit.obj
 0002:0000a2d8       $unwind$?fin$0@?0???$?RV<lambda_d80eeec6fff315bfe5c115232f3240e3>@@AEAV<lambda_6e4b09c48022b2350581041d5f6b0c4c>@@V<lambda_2358e3775559c9db80273638284d5e45>@@@?$__crt_seh_guarded_call@X@@QEAAX$$QEAV<lambda_d80eeec6fff315bfe5c115232f3240e3>@@AEAV<lambda_6e4b09c48022b2350581041d5f6b0c4c>@@$$QEAV<lambda_2358e3775559c9db80273638284d5e45>@@@Z@4HA 000000018002b2d8     libucrt:exit.obj
 0002:0000a2d8       $unwind$?fin$0@?0???$?RV<lambda_7777bce6b2f8c936911f934f8298dc43>@@AEAV<lambda_f03950bc5685219e0bcd2087efbe011e>@@V<lambda_3883c3dff614d5e0c5f61bb1ac94921c>@@@?$__crt_seh_guarded_call@H@@QEAAH$$QEAV<lambda_7777bce6b2f8c936911f934f8298dc43>@@AEAV<lambda_f03950bc5685219e0bcd2087efbe011e>@@$$QEAV<lambda_3883c3dff614d5e0c5f61bb1ac94921c>@@@Z@4HA 000000018002b2d8     libucrt:onexit.obj
 0002:0000a2d8       $unwind$_fcloseall$fin$0   000000018002b2d8     libucrt:closeall.obj
 0002:0000a2d8       $unwind$fclose$fin$0       000000018002b2d8     libucrt:fclose.obj
 0002:0000a2d8       $unwind$?fin$0@?0???$?RV<lambda_842d9ff0dc9ef11c61343bbaebe7f885>@@AEAV<lambda_c5860995281e5c4ce005b3de8f5874ee>@@V<lambda_d90129c13df834fdcbf8d2b88dafcf2d>@@@?$__crt_seh_guarded_call@X@@QEAAX$$QEAV<lambda_842d9ff0dc9ef11c61343bbaebe7f885>@@AEAV<lambda_c5860995281e5c4ce005b3de8f5874ee>@@$$QEAV<lambda_d90129c13df834fdcbf8d2b88dafcf2d>@@@Z@4HA 000000018002b2d8     libucrt:fflush.obj
 0002:0000a2d8       $unwind$?fin$0@?0???$?RV<lambda_886d6c58226a84441f68b9f2b8217b83>@@AEAV<lambda_ab61a845afdef5b7c387490eaf3616ee>@@V<lambda_f7f22ab5edc0698d5f6905b0d3f44752>@@@?$__crt_seh_guarded_call@X@@QEAAX$$QEAV<lambda_886d6c58226a84441f68b9f2b8217b83>@@AEAV<lambda_ab61a845afdef5b7c387490eaf3616ee>@@$$QEAV<lambda_f7f22ab5edc0698d5f6905b0d3f44752>@@@Z@4HA 000000018002b2d8     libucrt:fflush.obj
 0002:0000a2d8       $unwind$?fin$0@?0???$?RV<lambda_c376a267cfb53b6959b3b692ec76b120>@@AEAV<lambda_9a32fed5bf61b6b509b2d3f6003082a1>@@V<lambda_572fbb9fa0ab338edf41edfd4b5fcc8d>@@@?$__crt_seh_guarded_call@H@@QEAAH$$QEAV<lambda_c376a267cfb53b6959b3b692ec76b120>@@AEAV<lambda_9a32fed5bf61b6b509b2d3f6003082a1>@@$$QEAV<lambda_572fbb9fa0ab338edf41edfd4b5fcc8d>@@@Z@4HA 000000018002b2d8     libucrt:fflush.obj
 0002:0000a2d8       $unwind$?fin$0@?0???$?RV<lambda_676bd5779251ec186b530f0a904b4b35>@@AEAV<lambda_b579ea784fd840951dfbcbdaebf709fd>@@V<lambda_10027885da78ada7fb00668d7e2e96b5>@@@?$__crt_seh_guarded_call@H@@QEAAH$$QEAV<lambda_676bd5779251ec186b530f0a904b4b35>@@AEAV<lambda_b579ea784fd840951dfbcbdaebf709fd>@@$$QEAV<lambda_10027885da78ada7fb00668d7e2e96b5>@@@Z@4HA 000000018002b2d8     libucrt:output.obj
 0002:0000a2d8       $unwind$?fin$0@?0???$?RV<lambda_fe5404e9642edbb7c8ae71e1dcfa4018>@@AEAV<lambda_36eeb330e99a4f0bf8a7da86d0894cb9>@@V<lambda_2fa474834de80dc12f7a3c6eddd7a366>@@@?$__crt_seh_guarded_call@H@@QEAAH$$QEAV<lambda_fe5404e9642edbb7c8ae71e1dcfa4018>@@AEAV<lambda_36eeb330e99a4f0bf8a7da86d0894cb9>@@$$QEAV<lambda_2fa474834de80dc12f7a3c6eddd7a366>@@@Z@4HA 000000018002b2d8     libucrt:output.obj
 0002:0000a2d8       $unwind$?fin$0@?0???$?RV<lambda_84ec643ea9557e2f7dc01bb0e9624395>@@AEAV<lambda_ca71763b3c0644891230e4f79ea54fa6>@@V<lambda_439a761618c59b0600e24586724d733b>@@@?$__crt_seh_guarded_call@H@@QEAAH$$QEAV<lambda_84ec643ea9557e2f7dc01bb0e9624395>@@AEAV<lambda_ca71763b3c0644891230e4f79ea54fa6>@@$$QEAV<lambda_439a761618c59b0600e24586724d733b>@@@Z@4HA 000000018002b2d8     libucrt:setvbuf.obj
 0002:0000a2d8       $unwind$_ctrlfp$filt$0     000000018002b2d8     libucrt:fpctrl.obj
 0002:0000a2e0       $unwind$?HandleErrorCallback@ScryptAsyncWorker@@UEAAXXZ 000000018002b2e0     scrypt_params_async.obj
 0002:0000a2f0       $cppxdata$?HandleErrorCallback@ScryptAsyncWorker@@UEAAXXZ 000000018002b2f0     scrypt_params_async.obj
 0002:0000a2f9       $stateUnwindMap$?HandleErrorCallback@ScryptAsyncWorker@@UEAAXXZ 000000018002b2f9     scrypt_params_async.obj
 0002:0000a300       $ip2state$?HandleErrorCallback@ScryptAsyncWorker@@UEAAXXZ 000000018002b300     scrypt_params_async.obj
 0002:0000a308       $unwind$?WorkComplete@ScryptAsyncWorker@@UEAAXXZ 000000018002b308     scrypt_params_async.obj
 0002:0000a31c       $cppxdata$?WorkComplete@ScryptAsyncWorker@@UEAAXXZ 000000018002b31c     scrypt_params_async.obj
 0002:0000a325       $ip2state$?WorkComplete@ScryptAsyncWorker@@UEAAXXZ 000000018002b325     scrypt_params_async.obj
 0002:0000a330       $unwind$?Execute@ScryptKDFAsyncWorker@@UEAAXXZ 000000018002b330     scrypt_kdf_async.obj
 0002:0000a330       $unwind$?Execute@ScryptParamsAsyncWorker@@UEAAXXZ 000000018002b330     scrypt_params_async.obj
 0002:0000a330       $unwind$__dcrt_lowio_ensure_console_output_initialized 000000018002b330     libucrt:initcon.obj
 0002:0000a330       $unwind$_isleadbyte_l      000000018002b330     libucrt:_wctype.obj
 0002:0000a330       $unwind$?getSystemCP@@YAHH@Z 000000018002b330     libucrt:mbctype.obj
 0002:0000a338       $unwind$?HandleOKCallback@ScryptParamsAsyncWorker@@UEAAXXZ 000000018002b338     scrypt_params_async.obj
 0002:0000a350       $cppxdata$?HandleOKCallback@ScryptParamsAsyncWorker@@UEAAXXZ 000000018002b350     scrypt_params_async.obj
 0002:0000a359       $stateUnwindMap$?HandleOKCallback@ScryptParamsAsyncWorker@@UEAAXXZ 000000018002b359     scrypt_params_async.obj
 0002:0000a366       $ip2state$?HandleOKCallback@ScryptParamsAsyncWorker@@UEAAXXZ 000000018002b366     scrypt_params_async.obj
 0002:0000a37c       $unwind$?params@@YAXAEBV?$FunctionCallbackInfo@VValue@v8@@@Nan@@@Z 000000018002b37c     scrypt_params_async.obj
 0002:0000a394       $cppxdata$?params@@YAXAEBV?$FunctionCallbackInfo@VValue@v8@@@Nan@@@Z 000000018002b394     scrypt_params_async.obj
 0002:0000a39d       $stateUnwindMap$?params@@YAXAEBV?$FunctionCallbackInfo@VValue@v8@@@Nan@@@Z 000000018002b39d     scrypt_params_async.obj
 0002:0000a3ae       $ip2state$?params@@YAXAEBV?$FunctionCallbackInfo@VValue@v8@@@Nan@@@Z 000000018002b3ae     scrypt_params_async.obj
 0002:0000a3bc       $unwind$?paramsSync@@YAXAEBV?$FunctionCallbackInfo@VValue@v8@@@Nan@@@Z 000000018002b3bc     scrypt_params_sync.obj
 0002:0000a3dc       $cppxdata$?paramsSync@@YAXAEBV?$FunctionCallbackInfo@VValue@v8@@@Nan@@@Z 000000018002b3dc     scrypt_params_sync.obj
 0002:0000a3e5       $stateUnwindMap$?paramsSync@@YAXAEBV?$FunctionCallbackInfo@VValue@v8@@@Nan@@@Z 000000018002b3e5     scrypt_params_sync.obj
 0002:0000a3ec       $ip2state$?paramsSync@@YAXAEBV?$FunctionCallbackInfo@VValue@v8@@@Nan@@@Z 000000018002b3ec     scrypt_params_sync.obj
 0002:0000a400       $unwind$?SaveToPersistent@AsyncWorker@Nan@@QEAAXPEBDAEBV?$Local@VValue@v8@@@v8@@@Z 000000018002b400     scrypt_kdf_async.obj
 0002:0000a418       $cppxdata$?SaveToPersistent@AsyncWorker@Nan@@QEAAXPEBDAEBV?$Local@VValue@v8@@@v8@@@Z 000000018002b418     scrypt_kdf_async.obj
 0002:0000a421       $stateUnwindMap$?SaveToPersistent@AsyncWorker@Nan@@QEAAXPEBDAEBV?$Local@VValue@v8@@@v8@@@Z 000000018002b421     scrypt_kdf_async.obj
 0002:0000a42e       $ip2state$?SaveToPersistent@AsyncWorker@Nan@@QEAAXPEBDAEBV?$Local@VValue@v8@@@v8@@@Z 000000018002b42e     scrypt_kdf_async.obj
 0002:0000a43c       $unwind$?GetFromPersistent@AsyncWorker@Nan@@QEBA?AV?$Local@VValue@v8@@@v8@@PEBD@Z 000000018002b43c     scrypt_kdf_async.obj
 0002:0000a454       $cppxdata$?GetFromPersistent@AsyncWorker@Nan@@QEBA?AV?$Local@VValue@v8@@@v8@@PEBD@Z 000000018002b454     scrypt_kdf_async.obj
 0002:0000a45d       $stateUnwindMap$?GetFromPersistent@AsyncWorker@Nan@@QEBA?AV?$Local@VValue@v8@@@v8@@PEBD@Z 000000018002b45d     scrypt_kdf_async.obj
 0002:0000a46a       $ip2state$?GetFromPersistent@AsyncWorker@Nan@@QEBA?AV?$Local@VValue@v8@@@v8@@PEBD@Z 000000018002b46a     scrypt_kdf_async.obj
 0002:0000a478       $unwind$??0Params@NodeScrypt@@QEAA@AEBV?$Local@VObject@v8@@@v8@@@Z 000000018002b478     scrypt_kdf_async.obj
 0002:0000a484       $unwind$??0ScryptKDFAsyncWorker@@QEAA@AEBV?$FunctionCallbackInfo@VValue@v8@@@Nan@@@Z 000000018002b484     scrypt_kdf_async.obj
 0002:0000a49c       $cppxdata$??0ScryptKDFAsyncWorker@@QEAA@AEBV?$FunctionCallbackInfo@VValue@v8@@@Nan@@@Z 000000018002b49c     scrypt_kdf_async.obj
 0002:0000a4a5       $stateUnwindMap$??0ScryptHashAsyncWorker@@QEAA@AEBV?$FunctionCallbackInfo@VValue@v8@@@Nan@@@Z 000000018002b4a5     scrypt_hash_async.obj
 0002:0000a4a5       $stateUnwindMap$??0ScryptKDFVerifyAsyncWorker@@QEAA@AEBV?$FunctionCallbackInfo@VValue@v8@@@Nan@@@Z 000000018002b4a5     scrypt_kdf-verify_async.obj
 0002:0000a4a5       $stateUnwindMap$??0ScryptKDFAsyncWorker@@QEAA@AEBV?$FunctionCallbackInfo@VValue@v8@@@Nan@@@Z 000000018002b4a5     scrypt_kdf_async.obj
 0002:0000a4b1       $ip2state$??0ScryptKDFAsyncWorker@@QEAA@AEBV?$FunctionCallbackInfo@VValue@v8@@@Nan@@@Z 000000018002b4b1     scrypt_kdf_async.obj
 0002:0000a4c0       $unwind$?HandleOKCallback@ScryptHashAsyncWorker@@UEAAXXZ 000000018002b4c0     scrypt_hash_async.obj
 0002:0000a4c0       $unwind$?HandleOKCallback@ScryptKDFAsyncWorker@@UEAAXXZ 000000018002b4c0     scrypt_kdf_async.obj
 0002:0000a4d4       $cppxdata$?HandleOKCallback@ScryptHashAsyncWorker@@UEAAXXZ 000000018002b4d4     scrypt_hash_async.obj
 0002:0000a4d4       $cppxdata$?HandleOKCallback@ScryptKDFAsyncWorker@@UEAAXXZ 000000018002b4d4     scrypt_kdf_async.obj
 0002:0000a4dd       $ip2state$?HandleOKCallback@ScryptHashAsyncWorker@@UEAAXXZ 000000018002b4dd     scrypt_hash_async.obj
 0002:0000a4dd       $ip2state$?HandleOKCallback@ScryptKDFAsyncWorker@@UEAAXXZ 000000018002b4dd     scrypt_kdf_async.obj
 0002:0000a4e8       $unwind$?kdf@@YAXAEBV?$FunctionCallbackInfo@VValue@v8@@@Nan@@@Z 000000018002b4e8     scrypt_kdf_async.obj
 0002:0000a4f8       $cppxdata$?kdf@@YAXAEBV?$FunctionCallbackInfo@VValue@v8@@@Nan@@@Z 000000018002b4f8     scrypt_kdf_async.obj
 0002:0000a501       $stateUnwindMap$?kdf@@YAXAEBV?$FunctionCallbackInfo@VValue@v8@@@Nan@@@Z 000000018002b501     scrypt_kdf_async.obj
 0002:0000a507       $ip2state$?hash@@YAXAEBV?$FunctionCallbackInfo@VValue@v8@@@Nan@@@Z 000000018002b507     scrypt_hash_async.obj
 0002:0000a507       $ip2state$?kdfVerify@@YAXAEBV?$FunctionCallbackInfo@VValue@v8@@@Nan@@@Z 000000018002b507     scrypt_kdf-verify_async.obj
 0002:0000a507       $ip2state$?kdf@@YAXAEBV?$FunctionCallbackInfo@VValue@v8@@@Nan@@@Z 000000018002b507     scrypt_kdf_async.obj
 0002:0000a510       $unwind$?kdfSync@@YAXAEBV?$FunctionCallbackInfo@VValue@v8@@@Nan@@@Z 000000018002b510     scrypt_kdf_sync.obj
 0002:0000a520       $unwind$?kdfVerifySync@@YAXAEBV?$FunctionCallbackInfo@VValue@v8@@@Nan@@@Z 000000018002b520     scrypt_kdf-verify_sync.obj
 0002:0000a530       $unwind$??0ScryptKDFVerifyAsyncWorker@@QEAA@AEBV?$FunctionCallbackInfo@VValue@v8@@@Nan@@@Z 000000018002b530     scrypt_kdf-verify_async.obj
 0002:0000a548       $cppxdata$??0ScryptKDFVerifyAsyncWorker@@QEAA@AEBV?$FunctionCallbackInfo@VValue@v8@@@Nan@@@Z 000000018002b548     scrypt_kdf-verify_async.obj
 0002:0000a551       $ip2state$??0ScryptKDFVerifyAsyncWorker@@QEAA@AEBV?$FunctionCallbackInfo@VValue@v8@@@Nan@@@Z 000000018002b551     scrypt_kdf-verify_async.obj
 0002:0000a560       $unwind$?HandleOKCallback@ScryptKDFVerifyAsyncWorker@@UEAAXXZ 000000018002b560     scrypt_kdf-verify_async.obj
 0002:0000a570       $cppxdata$?HandleOKCallback@ScryptKDFVerifyAsyncWorker@@UEAAXXZ 000000018002b570     scrypt_kdf-verify_async.obj
 0002:0000a579       $stateUnwindMap$?HandleOKCallback@ScryptKDFVerifyAsyncWorker@@UEAAXXZ 000000018002b579     scrypt_kdf-verify_async.obj
 0002:0000a580       $ip2state$?HandleOKCallback@ScryptKDFVerifyAsyncWorker@@UEAAXXZ 000000018002b580     scrypt_kdf-verify_async.obj
 0002:0000a588       $unwind$?kdfVerify@@YAXAEBV?$FunctionCallbackInfo@VValue@v8@@@Nan@@@Z 000000018002b588     scrypt_kdf-verify_async.obj
 0002:0000a598       $cppxdata$?kdfVerify@@YAXAEBV?$FunctionCallbackInfo@VValue@v8@@@Nan@@@Z 000000018002b598     scrypt_kdf-verify_async.obj
 0002:0000a5a1       $stateUnwindMap$?kdfVerify@@YAXAEBV?$FunctionCallbackInfo@VValue@v8@@@Nan@@@Z 000000018002b5a1     scrypt_kdf-verify_async.obj
 0002:0000a5a8       $unwind$?hashSync@@YAXAEBV?$FunctionCallbackInfo@VValue@v8@@@Nan@@@Z 000000018002b5a8     scrypt_hash_sync.obj
 0002:0000a5c0       $unwind$??0ScryptHashAsyncWorker@@QEAA@AEBV?$FunctionCallbackInfo@VValue@v8@@@Nan@@@Z 000000018002b5c0     scrypt_hash_async.obj
 0002:0000a5d8       $cppxdata$??0ScryptHashAsyncWorker@@QEAA@AEBV?$FunctionCallbackInfo@VValue@v8@@@Nan@@@Z 000000018002b5d8     scrypt_hash_async.obj
 0002:0000a5e1       $ip2state$??0ScryptHashAsyncWorker@@QEAA@AEBV?$FunctionCallbackInfo@VValue@v8@@@Nan@@@Z 000000018002b5e1     scrypt_hash_async.obj
 0002:0000a5f0       $unwind$?Execute@ScryptHashAsyncWorker@@UEAAXXZ 000000018002b5f0     scrypt_hash_async.obj
 0002:0000a5fc       $unwind$?hash@@YAXAEBV?$FunctionCallbackInfo@VValue@v8@@@Nan@@@Z 000000018002b5fc     scrypt_hash_async.obj
 0002:0000a60c       $cppxdata$?hash@@YAXAEBV?$FunctionCallbackInfo@VValue@v8@@@Nan@@@Z 000000018002b60c     scrypt_hash_async.obj
 0002:0000a615       $stateUnwindMap$?hash@@YAXAEBV?$FunctionCallbackInfo@VValue@v8@@@Nan@@@Z 000000018002b615     scrypt_hash_async.obj
 0002:0000a61c       $unwind$?FunctionCallbackWrapper@imp@Nan@@YAXAEBV?$FunctionCallbackInfo@VValue@v8@@@v8@@@Z 000000018002b61c     scrypt_node.obj
 0002:0000a630       $unwind$?InitAll@@YAXV?$Local@VObject@v8@@@v8@@@Z 000000018002b630     scrypt_node.obj
 0002:0000a648       $cppxdata$?InitAll@@YAXV?$Local@VObject@v8@@@v8@@@Z 000000018002b648     scrypt_node.obj
 0002:0000a651       $stateUnwindMap$?InitAll@@YAXV?$Local@VObject@v8@@@v8@@@Z 000000018002b651     scrypt_node.obj
 0002:0000a65e       $ip2state$?InitAll@@YAXV?$Local@VObject@v8@@@v8@@@Z 000000018002b65e     scrypt_node.obj
 0002:0000a6a4       $unwind$??$New@VFunctionTemplate@v8@@@Nan@@YA?AV?$Local@VFunctionTemplate@v8@@@v8@@P6AXAEBV?$FunctionCallbackInfo@VValue@v8@@@0@@ZV?$Local@VValue@v8@@@2@@Z 000000018002b6a4     scrypt_node.obj
 0002:0000a6c4       $cppxdata$??$New@VFunctionTemplate@v8@@@Nan@@YA?AV?$Local@VFunctionTemplate@v8@@@v8@@P6AXAEBV?$FunctionCallbackInfo@VValue@v8@@@0@@ZV?$Local@VValue@v8@@@2@@Z 000000018002b6c4     scrypt_node.obj
 0002:0000a6cd       $stateUnwindMap$??$New@VFunctionTemplate@v8@@@Nan@@YA?AV?$Local@VFunctionTemplate@v8@@@v8@@P6AXAEBV?$FunctionCallbackInfo@VValue@v8@@@0@@ZV?$Local@VValue@v8@@@2@@Z 000000018002b6cd     scrypt_node.obj
 0002:0000a6da       $ip2state$??$New@VFunctionTemplate@v8@@@Nan@@YA?AV?$Local@VFunctionTemplate@v8@@@v8@@P6AXAEBV?$FunctionCallbackInfo@VValue@v8@@@0@@ZV?$Local@VValue@v8@@@2@@Z 000000018002b6da     scrypt_node.obj
 0002:0000a6e8       $unwind$pickparams         000000018002b6e8     scrypt_wrapper:pickparams.obj
 0002:0000a704       $unwind$KDF                000000018002b704     scrypt_wrapper:keyderivation.obj
 0002:0000a724       $unwind$Verify             000000018002b724     scrypt_wrapper:keyderivation.obj
 0002:0000a744       $unwind$scryptenc_cpuperf  000000018002b744     scrypt_lib:scryptenc_cpuperf.obj
 0002:0000a770       $unwind$SHA256_Transform   000000018002b770     scrypt_lib:sha256.obj
 0002:0000a794       $unwind$libcperciva_SHA256_Update 000000018002b794     scrypt_lib:sha256.obj
 0002:0000a7a4       $chain$0$libcperciva_SHA256_Update 000000018002b7a4     scrypt_lib:sha256.obj
 0002:0000a7b8       $chain$1$libcperciva_SHA256_Update 000000018002b7b8     scrypt_lib:sha256.obj
 0002:0000a7cc       $chain$2$libcperciva_SHA256_Update 000000018002b7cc     scrypt_lib:sha256.obj
 0002:0000a7dc       $chain$3$libcperciva_SHA256_Update 000000018002b7dc     scrypt_lib:sha256.obj
 0002:0000a7ec       $unwind$libcperciva_SHA256_Final 000000018002b7ec     scrypt_lib:sha256.obj
 0002:0000a800       $chain$2$libcperciva_SHA256_Final 000000018002b800     scrypt_lib:sha256.obj
 0002:0000a81c       $chain$3$libcperciva_SHA256_Final 000000018002b81c     scrypt_lib:sha256.obj
 0002:0000a82c       $unwind$libcperciva_HMAC_SHA256_Init 000000018002b82c     scrypt_lib:sha256.obj
 0002:0000a848       $chain$0$libcperciva_HMAC_SHA256_Init 000000018002b848     scrypt_lib:sha256.obj
 0002:0000a85c       $chain$1$libcperciva_HMAC_SHA256_Init 000000018002b85c     scrypt_lib:sha256.obj
 0002:0000a86c       $unwind$libcperciva_HMAC_SHA256_Final 000000018002b86c     scrypt_lib:sha256.obj
 0002:0000a884       $chain$1$libcperciva_HMAC_SHA256_Final 000000018002b884     scrypt_lib:sha256.obj
 0002:0000a89c       $chain$2$libcperciva_HMAC_SHA256_Final 000000018002b89c     scrypt_lib:sha256.obj
 0002:0000a8ac       $unwind$PBKDF2_SHA256      000000018002b8ac     scrypt_lib:sha256.obj
 0002:0000a8c8       $unwind$_crypto_scrypt     000000018002b8c8     scrypt_lib:crypto_scrypt.obj
 0002:0000a8e0       $unwind$crypto_scrypt      000000018002b8e0     scrypt_lib:crypto_scrypt.obj
 0002:0000a8fc       $unwind$fprintf            000000018002b8fc     scrypt_lib:warnp.obj
 0002:0000a8fc       $unwind$fwprintf           000000018002b8fc     libucrt:assert.obj
 0002:0000a908       $unwind$libcperciva_warnx  000000018002b908     scrypt_lib:warnp.obj
 0002:0000a910       $chain$1$libcperciva_warnx 000000018002b910     scrypt_lib:warnp.obj
 0002:0000a928       $chain$2$libcperciva_warnx 000000018002b928     scrypt_lib:warnp.obj
 0002:0000a938       $unwind$salsa20_8          000000018002b938     scrypt_lib:crypto_scrypt_smix.obj
 0002:0000a960       $unwind$blockmix_salsa8    000000018002b960     scrypt_lib:crypto_scrypt_smix.obj
 0002:0000a96c       $chain$4$blockmix_salsa8   000000018002b96c     scrypt_lib:crypto_scrypt_smix.obj
 0002:0000a990       $chain$5$blockmix_salsa8   000000018002b990     scrypt_lib:crypto_scrypt_smix.obj
 0002:0000a9a0       $unwind$crypto_scrypt_smix 000000018002b9a0     scrypt_lib:crypto_scrypt_smix.obj
 0002:0000a9ac       $chain$3$crypto_scrypt_smix 000000018002b9ac     scrypt_lib:crypto_scrypt_smix.obj
 0002:0000a9cc       $chain$5$crypto_scrypt_smix 000000018002b9cc     scrypt_lib:crypto_scrypt_smix.obj
 0002:0000a9e4       $chain$6$crypto_scrypt_smix 000000018002b9e4     scrypt_lib:crypto_scrypt_smix.obj
 0002:0000a9f4       $chain$7$crypto_scrypt_smix 000000018002b9f4     scrypt_lib:crypto_scrypt_smix.obj
 0002:0000aa04       xdata                      000000018002ba04     node:node.exe
 0002:0000aa0c       $unwind$?__scrt_throw_std_bad_alloc@@YAXXZ 000000018002ba0c     LIBCMT:throw_bad_alloc.obj
 0002:0000aa0c       $unwind$?__scrt_throw_std_bad_array_new_length@@YAXXZ 000000018002ba0c     LIBCMT:throw_bad_alloc.obj
 0002:0000aa0c       $unwind$?_Xlength_error@std@@YAXPEBD@Z 000000018002ba0c     libcpmt:xthrow.obj
 0002:0000aa0c       $unwind$_raise_exc         000000018002ba0c     libucrt:fpexcept.obj
 0002:0000aa18       $xdatasym                  000000018002ba18     LIBCMT:amdsecgs.obj
 0002:0000aa1c       $unwind$?dllmain_crt_process_attach@@YAHQEAUHINSTANCE__@@QEAX@Z 000000018002ba1c     LIBCMT:dll_dllmain.obj
 0002:0000aa58       $unwind$?dllmain_crt_process_detach@@YAH_N@Z 000000018002ba58     LIBCMT:dll_dllmain.obj
 0002:0000aa8c       $unwind$?dllmain_dispatch@@YAHQEAUHINSTANCE__@@KQEAX@Z 000000018002ba8c     LIBCMT:dll_dllmain.obj
 0002:0000aab4       $unwind$?filt$0@?0??dllmain_dispatch@@YAHQEAUHINSTANCE__@@KQEAX@Z@4HA 000000018002bab4     LIBCMT:dll_dllmain.obj
 0002:0000aab4       $unwind$?filt$0@?0??FrameUnwindToState@__FrameHandler4@@SAXPEA_KPEAU_xDISPATCHER_CONTEXT@@PEAUFuncInfo4@FH4@@H@Z@4HA 000000018002bab4     libvcruntime:frame.obj
 0002:0000aab4       $unwind$?fin$1@?0??FrameUnwindToState@__FrameHandler4@@SAXPEA_KPEAU_xDISPATCHER_CONTEXT@@PEAUFuncInfo4@FH4@@H@Z@4HA 000000018002bab4     libvcruntime:frame.obj
 0002:0000aabc       $unwind$_DllMainCRTStartup 000000018002babc     LIBCMT:dll_dllmain.obj
 0002:0000aabc       $unwind$__vcrt_getptd_noexit 000000018002babc     libvcruntime:per_thread_data.obj
 0002:0000aabc       $unwind$__vcrt_InitializeCriticalSectionEx 000000018002babc     libvcruntime:winapi_downlevel.obj
 0002:0000aabc       $unwind$memcpy_s           000000018002babc     libucrt:cfout.obj
 0002:0000aabc       $unwind$__acrt_getptd      000000018002babc     libucrt:per_thread_data.obj
 0002:0000aabc       $unwind$__acrt_getptd_noexit 000000018002babc     libucrt:per_thread_data.obj
 0002:0000aabc       $unwind$__acrt_execute_initializers 000000018002babc     libucrt:shared_initialization.obj
 0002:0000aabc       $unwind$__acrt_InitializeCriticalSectionEx 000000018002babc     libucrt:winapi_thunks.obj
 0002:0000aabc       $unwind$?free_crt_array_internal@@YAXQEAPEBX_K@Z 000000018002babc     libucrt:inittime.obj
 0002:0000aabc       $unwind$??$common_lseek_nolock@_J@@YA_JH_JH@Z 000000018002babc     libucrt:lseek.obj
 0002:0000aabc       $unwind$__acrt_stdio_flush_and_write_narrow_nolock 000000018002babc     libucrt:_flsbuf.obj
 0002:0000aabc       $unwind$__acrt_stdio_flush_and_write_wide_nolock 000000018002babc     libucrt:_flsbuf.obj
 0002:0000aabc       $unwind$__acrt_stdio_flush_nolock 000000018002babc     libucrt:fflush.obj
 0002:0000aabc       $unwind$?type_case_Z@?$output_processor@_WV?$stream_output_adapter@_W@__crt_stdio_output@@V?$standard_base@_WV?$stream_output_adapter@_W@__crt_stdio_output@@@2@@__crt_stdio_output@@AEAA_NXZ 000000018002babc     libucrt:output.obj
 0002:0000aabc       $unwind$?type_case_Z@?$output_processor@_WV?$string_output_adapter@_W@__crt_stdio_output@@V?$standard_base@_WV?$string_output_adapter@_W@__crt_stdio_output@@@2@@__crt_stdio_output@@AEAA_NXZ 000000018002babc     libucrt:output.obj
 0002:0000aabc       $unwind$?type_case_n@?$output_processor@DV?$stream_output_adapter@D@__crt_stdio_output@@V?$standard_base@DV?$stream_output_adapter@D@__crt_stdio_output@@@2@@__crt_stdio_output@@AEAA_NXZ 000000018002babc     libucrt:output.obj
 0002:0000aabc       $unwind$?type_case_n@?$output_processor@_WV?$stream_output_adapter@_W@__crt_stdio_output@@V?$standard_base@_WV?$stream_output_adapter@_W@__crt_stdio_output@@@2@@__crt_stdio_output@@AEAA_NXZ 000000018002babc     libucrt:output.obj
 0002:0000aabc       $unwind$?type_case_n@?$output_processor@_WV?$string_output_adapter@_W@__crt_stdio_output@@V?$standard_base@_WV?$string_output_adapter@_W@__crt_stdio_output@@@2@@__crt_stdio_output@@AEAA_NXZ 000000018002babc     libucrt:output.obj
 0002:0000aabc       $unwind$?type_case_s@?$output_processor@_WV?$stream_output_adapter@_W@__crt_stdio_output@@V?$standard_base@_WV?$stream_output_adapter@_W@__crt_stdio_output@@@2@@__crt_stdio_output@@AEAA_NXZ 000000018002babc     libucrt:output.obj
 0002:0000aabc       $unwind$?type_case_s@?$output_processor@_WV?$string_output_adapter@_W@__crt_stdio_output@@V?$standard_base@_WV?$string_output_adapter@_W@__crt_stdio_output@@@2@@__crt_stdio_output@@AEAA_NXZ 000000018002babc     libucrt:output.obj
 0002:0000aabc       $unwind$??R<lambda_ca71763b3c0644891230e4f79ea54fa6>@@QEBAHXZ 000000018002babc     libucrt:setvbuf.obj
 0002:0000aabc       $unwind$??0_LocaleUpdate@@QEAA@QEAU__crt_locale_pointers@@@Z 000000018002babc     libucrt:stricmp.obj
 0002:0000aabc       $unwind$_exception_enabled 000000018002babc     libucrt:libm_error.obj
 0002:0000aacc       $unwind$__scrt_is_nonwritable_in_current_image 000000018002bacc     LIBCMT:utility.obj
 0002:0000aaec       $unwind$__scrt_is_nonwritable_in_current_image$filt$0 000000018002baec     LIBCMT:utility.obj
 0002:0000aaf4       $unwind$__scrt_dllmain_exception_filter 000000018002baf4     LIBCMT:utility.obj
 0002:0000aaf4       $unwind$?Is_bad_exception_allowed@@YAEPEBU_s_ESTypeList@@@Z 000000018002baf4     libvcruntime:frame.obj
 0002:0000aaf4       $unwind$_ischartype_l      000000018002baf4     libucrt:atox.obj
 0002:0000aaf4       $unwind$_recalloc_base     000000018002baf4     libucrt:recalloc.obj
 0002:0000aaf4       $unwind$__acrt_free_locale 000000018002baf4     libucrt:locale_refcounting.obj
 0002:0000aaf4       $unwind$__acrt_lowio_create_handle_array 000000018002baf4     libucrt:osfinfo.obj
 0002:0000aaf4       $unwind$?setSBCS@@YAXPEAU__crt_multibyte_data@@@Z 000000018002baf4     libucrt:mbctype.obj
 0002:0000aaf4       $unwind$__acrt_show_wide_message_box 000000018002baf4     libucrt:crtmbox.obj
 0002:0000aaf4       $unwind$_seh_filter_exe    000000018002baf4     libucrt:exception_filter.obj
 0002:0000aaf4       $unwind$_wassert           000000018002baf4     libucrt:assert.obj
 0002:0000aaf4       $unwind$_initterm          000000018002baf4     libucrt:initterm.obj
 0002:0000aaf4       $unwind$??$ensure_buffer_is_big_enough@D@formatting_buffer@__crt_stdio_output@@QEAA_N_K@Z 000000018002baf4     libucrt:output.obj
 0002:0000aaf4       $unwind$??$ensure_buffer_is_big_enough@_W@formatting_buffer@__crt_stdio_output@@QEAA_N_K@Z 000000018002baf4     libucrt:output.obj
 0002:0000ab08       $unwind$__report_securityfailure 000000018002bb08     LIBCMT:gs_report.obj
 0002:0000ab10       $unwind$__report_gsfailure 000000018002bb10     LIBCMT:gs_report.obj
 0002:0000ab18       $unwind$capture_current_context 000000018002bb18     LIBCMT:gs_report.obj
 0002:0000ab24       $unwind$capture_previous_context 000000018002bb24     LIBCMT:gs_report.obj
 0002:0000ab30       $unwind$__security_init_cookie 000000018002bb30     LIBCMT:gs_support.obj
 0002:0000ab3c       $unwind$__scrt_fastfail    000000018002bb3c     LIBCMT:utility_desktop.obj
 0002:0000ab4c       $unwind$__isa_available_init 000000018002bb4c     LIBCMT:cpu_disp.obj
 0002:0000ab60       $xdatasym                  000000018002bb60     LIBCMT:guard_dispatch.obj
 0002:0000ab64       $unwind$?DecompFuncInfo@FH4@@YA_JPEAEAEAUFuncInfo4@1@_KH_N@Z 000000018002bb64     libvcruntime:risctrnsctrl.obj
 0002:0000ab7c       $unwind$?UnwindNestedFrames@__FrameHandler4@@SAXPEA_KPEAUEHExceptionRecord@@PEAU_CONTEXT@@0PEAXPEAUFuncInfo4@FH4@@HHPEAUHandlerType4@5@PEAU_xDISPATCHER_CONTEXT@@E@Z 000000018002bb7c     libvcruntime:risctrnsctrl.obj
 0002:0000ab90       $unwind$?GetRangeOfTrysToCheck@__FrameHandler4@@SA?AU?$pair@Viterator@TryBlockMap4@FH4@@V123@@std@@AEAVTryBlockMap4@FH4@@HPEAU_xDISPATCHER_CONTEXT@@PEAUFuncInfo4@5@H@Z 000000018002bb90     libvcruntime:risctrnsctrl.obj
 0002:0000abac       $unwind$__CxxFrameHandler4 000000018002bbac     libvcruntime:risctrnsctrl.obj
 0002:0000abc0       $unwind$??$_CallSETranslator@V__FrameHandler4@@@@YAHPEAUEHExceptionRecord@@PEA_KPEAU_CONTEXT@@PEAU_xDISPATCHER_CONTEXT@@PEAUFuncInfo4@FH4@@K1@Z 000000018002bbc0     libvcruntime:risctrnsctrl.obj
 0002:0000abe0       $unwind$?filt$0@?0???$_CallSETranslator@V__FrameHandler4@@@@YAHPEAUEHExceptionRecord@@PEA_KPEAU_CONTEXT@@PEAU_xDISPATCHER_CONTEXT@@PEAUFuncInfo4@FH4@@K1@Z@4HA 000000018002bbe0     libvcruntime:risctrnsctrl.obj
 0002:0000abec       $unwind$__DestructExceptionObject 000000018002bbec     libvcruntime:ehhelpers.obj
 0002:0000ac0c       $unwind$__DestructExceptionObject$filt$0 000000018002bc0c     libvcruntime:ehhelpers.obj
 0002:0000ac0c       $unwind$?fin$1@?0??CxxCallCatchBlock@__FrameHandler4@@SAPEAXPEAU_EXCEPTION_RECORD@@@Z@4HA 000000018002bc0c     libvcruntime:frame.obj
 0002:0000ac18       $unwind$__std_exception_copy 000000018002bc18     libvcruntime:std_exception.obj
 0002:0000ac18       $unwind$_free_osfhnd       000000018002bc18     libucrt:osfinfo.obj
 0002:0000ac2c       $unwind$_CxxThrowException 000000018002bc2c     libvcruntime:throw.obj
 0002:0000ac3c       $unwind$__C_specific_handler 000000018002bc3c     libvcruntime:riscchandler.obj
 0002:0000ac58       $xdatasym                  000000018002bc58     libvcruntime:memset.obj
 0002:0000ac68       $unwind$?StateFromIp@__FrameHandler4@@SAHPEAUFuncInfo4@FH4@@PEAU_xDISPATCHER_CONTEXT@@_K@Z 000000018002bc68     libvcruntime:ehstate.obj
 0002:0000ac7c       $unwind$?getStartStop@UWMap4@FH4@@QEAAXHHAEAViterator@12@0@Z 000000018002bc7c     libvcruntime:frame.obj
 0002:0000ac94       $unwind$?getStateFromIterators@UWMap4@FH4@@SAHAEBViterator@12@H0H0@Z 000000018002bc94     libvcruntime:frame.obj
 0002:0000ac94       $unwind$strpbrk            000000018002bc94     libucrt:strpbrk.obj
 0002:0000aca4       $unwind$?FrameUnwindToState@__FrameHandler4@@SAXPEA_KPEAU_xDISPATCHER_CONTEXT@@PEAUFuncInfo4@FH4@@H@Z 000000018002bca4     libvcruntime:frame.obj
 0002:0000acec       $unwind$?CxxCallCatchBlock@__FrameHandler4@@SAPEAXPEAU_EXCEPTION_RECORD@@@Z 000000018002bcec     libvcruntime:frame.obj
 0002:0000ad48       $unwind$?IsInExceptionSpec@@YAEPEAUEHExceptionRecord@@PEBU_s_ESTypeList@@@Z 000000018002bd48     libvcruntime:frame.obj
 0002:0000ad64       $unwind$??$__InternalCxxFrameHandler@V__FrameHandler4@@@@YA?AW4_EXCEPTION_DISPOSITION@@PEAUEHExceptionRecord@@PEA_KPEAU_CONTEXT@@PEAU_xDISPATCHER_CONTEXT@@PEAUFuncInfo4@FH4@@H1E@Z 000000018002bd64     libvcruntime:frame.obj
 0002:0000ad7c       $unwind$__GSHandlerCheck_EH4 000000018002bd7c     LIBCMT:gshandlereh4.obj
 0002:0000ad7c       $unwind$__GSHandlerCheck_SEH 000000018002bd7c     LIBCMT:gshandlerseh.obj
 0002:0000ad7c       $unwind$??$TypeMatchHelper@V__FrameHandler3@@@@YAHPEBU_s_HandlerType@@PEBU_s_CatchableType@@PEBU_s_ThrowInfo@@@Z 000000018002bd7c     libvcruntime:frame.obj
 0002:0000ad7c       $unwind$??$TypeMatchHelper@V__FrameHandler4@@@@YAHPEAUHandlerType4@FH4@@PEBU_s_CatchableType@@PEBU_s_ThrowInfo@@@Z 000000018002bd7c     libvcruntime:frame.obj
 0002:0000ad7c       $unwind$?initialize_stdio_handles_nolock@@YAXXZ 000000018002bd7c     libucrt:ioinit.obj
 0002:0000ad7c       $unwind$__acrt_initialize_stdio 000000018002bd7c     libucrt:_file.obj
 0002:0000ad94       $unwind$??$BuildCatchObjectHelperInternal@V__FrameHandler4@@@@YAHPEAUEHExceptionRecord@@PEAXPEAUHandlerType4@FH4@@PEBU_s_CatchableType@@@Z 000000018002bd94     libvcruntime:frame.obj
 0002:0000add4       $unwind$??$BuildCatchObjectInternal@V__FrameHandler4@@@@YAXPEAUEHExceptionRecord@@PEAXPEAUHandlerType4@FH4@@PEBU_s_CatchableType@@@Z 000000018002bdd4     libvcruntime:frame.obj
 0002:0000ae00       $unwind$??$FindHandler@V__FrameHandler4@@@@YAXPEAUEHExceptionRecord@@PEA_KPEAU_CONTEXT@@PEAU_xDISPATCHER_CONTEXT@@PEAUFuncInfo4@FH4@@EH1@Z 000000018002be00     libvcruntime:frame.obj
 0002:0000ae20       $unwind$??$CatchIt@V__FrameHandler4@@@@YAXPEAUEHExceptionRecord@@PEA_KPEAU_CONTEXT@@PEAU_xDISPATCHER_CONTEXT@@PEAUFuncInfo4@FH4@@PEAUHandlerType4@4@PEBU_s_CatchableType@@PEAUTryBlockMapEntry4@4@H1EE@Z 000000018002be20     libvcruntime:frame.obj
 0002:0000ae38       $unwind$??$FindHandlerForForeignException@V__FrameHandler4@@@@YAXPEAUEHExceptionRecord@@PEA_KPEAU_CONTEXT@@PEAU_xDISPATCHER_CONTEXT@@PEAUFuncInfo4@FH4@@HH1@Z 000000018002be38     libvcruntime:frame.obj
 0002:0000ae58       $xdatasym                  000000018002be58     libvcruntime:notify.obj
 0002:0000ae64       $unwind$?try_get_function@@YAPEAXW4function_id@?A0x87d18907@@QEBDQEBW4module_id@2@2@Z 000000018002be64     libvcruntime:winapi_downlevel.obj
 0002:0000ae64       $unwind$?try_get_function@@YAPEAXW4function_id@?A0x391cf84c@@QEBDQEBW4module_id@2@2@Z 000000018002be64     libucrt:winapi_thunks.obj
 0002:0000ae80       $xdatasym                  000000018002be80     libvcruntime:handlers.obj
 0002:0000aea0       $xdatasym                  000000018002bea0     libvcruntime:memcpy.obj
 0002:0000aeb0       $unwind$__acrt_call_reportfault 000000018002beb0     libucrt:invalid_parameter.obj
 0002:0000aed0       $unwind$__acrt_MessageBoxW 000000018002bed0     libucrt:winapi_thunks.obj
 0002:0000aed0       $unwind$_invalid_parameter 000000018002bed0     libucrt:invalid_parameter.obj
 0002:0000aee4       $unwind$strerror           000000018002bee4     libucrt:strerror.obj
 0002:0000aef0       $unwind$swprintf           000000018002bef0     libucrt:assert.obj
 0002:0000af00       $unwind$??$common_assert_to_stderr@_W@@YAXQEB_W0I@Z 000000018002bf00     libucrt:assert.obj
 0002:0000af1c       $unwind$??$common_assert_to_message_box@_W@@YAXQEB_W0IQEAX@Z 000000018002bf1c     libucrt:assert.obj
 0002:0000af38       $unwind$??$common_assert_to_message_box_build_string@_W@@YAXQEA_W_KQEB_W2IQEAX@Z 000000018002bf38     libucrt:assert.obj
 0002:0000af58       $unwind$_mbsdec_l          000000018002bf58     libucrt:mbsdec.obj
 0002:0000af58       $unwind$_stricmp_l         000000018002bf58     libucrt:stricmp.obj
 0002:0000af64       $unwind$__stdio_common_vfprintf 000000018002bf64     libucrt:output.obj
 0002:0000af64       $unwind$__stdio_common_vfwprintf 000000018002bf64     libucrt:output.obj
 0002:0000af6c       $unwind$??$common_vsprintf@Vstandard_base@__crt_stdio_output@@_W@@YAH_KQEA_W0QEB_WQEAU__crt_locale_pointers@@QEAD@Z 000000018002bf6c     libucrt:output.obj
 0002:0000af8c       $unwind$??$parse_command_line@D@@YAXPEADPEAPEAD0PEA_K2@Z 000000018002bf8c     libucrt:argv_parsing.obj
 0002:0000af8c       $unwind$?write_string_impl@?$output_adapter_common@DV?$stream_output_adapter@D@__crt_stdio_output@@@__crt_stdio_output@@IEBAXQEBDHQEAHAEAV__crt_deferred_errno_cache@@@Z 000000018002bf8c     libucrt:output.obj
 0002:0000af8c       $unwind$?write_string_impl@?$output_adapter_common@_WV?$stream_output_adapter@_W@__crt_stdio_output@@@__crt_stdio_output@@IEBAXQEB_WHQEAHAEAV__crt_deferred_errno_cache@@@Z 000000018002bf8c     libucrt:output.obj
 0002:0000afa8       $unwind$?process@?$output_processor@DV?$stream_output_adapter@D@__crt_stdio_output@@V?$standard_base@DV?$stream_output_adapter@D@__crt_stdio_output@@@2@@__crt_stdio_output@@QEAAHXZ 000000018002bfa8     libucrt:output.obj
 0002:0000afb8       $unwind$?parse_int_from_format_string@?$output_processor@DV?$stream_output_adapter@D@__crt_stdio_output@@V?$standard_base@DV?$stream_output_adapter@D@__crt_stdio_output@@@2@@__crt_stdio_output@@AEAA_NQEAH@Z 000000018002bfb8     libucrt:output.obj
 0002:0000afb8       $unwind$?process@?$output_processor@_WV?$stream_output_adapter@_W@__crt_stdio_output@@V?$standard_base@_WV?$stream_output_adapter@_W@__crt_stdio_output@@@2@@__crt_stdio_output@@QEAAHXZ 000000018002bfb8     libucrt:output.obj
 0002:0000afb8       $unwind$?process@?$output_processor@_WV?$string_output_adapter@_W@__crt_stdio_output@@V?$standard_base@_WV?$string_output_adapter@_W@__crt_stdio_output@@@2@@__crt_stdio_output@@QEAAHXZ 000000018002bfb8     libucrt:output.obj
 0002:0000afcc       $unwind$?state_case_type@?$output_processor@DV?$stream_output_adapter@D@__crt_stdio_output@@V?$standard_base@DV?$stream_output_adapter@D@__crt_stdio_output@@@2@@__crt_stdio_output@@AEAA_NXZ 000000018002bfcc     libucrt:output.obj
 0002:0000afe4       $unwind$?type_case_a@?$output_processor@DV?$stream_output_adapter@D@__crt_stdio_output@@V?$standard_base@DV?$stream_output_adapter@D@__crt_stdio_output@@@2@@__crt_stdio_output@@AEAA_NXZ 000000018002bfe4     libucrt:output.obj
 0002:0000aff0       $unwind$??$common_xtox@K_W@@YAHKQEA_W_KI_N@Z 000000018002bff0     libucrt:xtoa.obj
 0002:0000aff0       $unwind$__acrt_DownlevelLocaleNameToLCID 000000018002bff0     libucrt:lcidtoname_downlevel.obj
 0002:0000aff0       $unwind$??R<lambda_f03950bc5685219e0bcd2087efbe011e>@@QEBAHXZ 000000018002bff0     libucrt:onexit.obj
 0002:0000aff0       $unwind$?type_case_integer@?$output_processor@DV?$stream_output_adapter@D@__crt_stdio_output@@V?$standard_base@DV?$stream_output_adapter@D@__crt_stdio_output@@@2@@__crt_stdio_output@@AEAA_NI_N@Z 000000018002bff0     libucrt:output.obj
 0002:0000aff0       $unwind$?type_case_integer@?$output_processor@_WV?$stream_output_adapter@_W@__crt_stdio_output@@V?$standard_base@_WV?$stream_output_adapter@_W@__crt_stdio_output@@@2@@__crt_stdio_output@@AEAA_NI_N@Z 000000018002bff0     libucrt:output.obj
 0002:0000aff0       $unwind$?type_case_integer@?$output_processor@_WV?$string_output_adapter@_W@__crt_stdio_output@@V?$standard_base@_WV?$string_output_adapter@_W@__crt_stdio_output@@@2@@__crt_stdio_output@@AEAA_NI_N@Z 000000018002bff0     libucrt:output.obj
 0002:0000b008       $unwind$?write_stored_string_tchar@?$output_processor@DV?$stream_output_adapter@D@__crt_stdio_output@@V?$standard_base@DV?$stream_output_adapter@D@__crt_stdio_output@@@2@@__crt_stdio_output@@AEAA_ND@Z 000000018002c008     libucrt:output.obj
 0002:0000b020       $unwind$??R<lambda_36eeb330e99a4f0bf8a7da86d0894cb9>@@QEBAHXZ 000000018002c020     libucrt:output.obj
 0002:0000b020       $unwind$??R<lambda_b579ea784fd840951dfbcbdaebf709fd>@@QEBAHXZ 000000018002c020     libucrt:output.obj
 0002:0000b040       $unwind$?parse_int_from_format_string@?$output_processor@_WV?$stream_output_adapter@_W@__crt_stdio_output@@V?$standard_base@_WV?$stream_output_adapter@_W@__crt_stdio_output@@@2@@__crt_stdio_output@@AEAA_NQEAH@Z 000000018002c040     libucrt:output.obj
 0002:0000b040       $unwind$?parse_int_from_format_string@?$output_processor@_WV?$string_output_adapter@_W@__crt_stdio_output@@V?$standard_base@_WV?$string_output_adapter@_W@__crt_stdio_output@@@2@@__crt_stdio_output@@AEAA_NQEAH@Z 000000018002c040     libucrt:output.obj
 0002:0000b054       $unwind$?state_case_type@?$output_processor@_WV?$stream_output_adapter@_W@__crt_stdio_output@@V?$standard_base@_WV?$stream_output_adapter@_W@__crt_stdio_output@@@2@@__crt_stdio_output@@AEAA_NXZ 000000018002c054     libucrt:output.obj
 0002:0000b074       $unwind$?type_case_c_tchar@?$output_processor@_WV?$stream_output_adapter@_W@__crt_stdio_output@@V?$standard_base@_WV?$stream_output_adapter@_W@__crt_stdio_output@@@2@@__crt_stdio_output@@AEAA_N_W@Z 000000018002c074     libucrt:output.obj
 0002:0000b074       $unwind$?type_case_c_tchar@?$output_processor@_WV?$string_output_adapter@_W@__crt_stdio_output@@V?$standard_base@_WV?$string_output_adapter@_W@__crt_stdio_output@@@2@@__crt_stdio_output@@AEAA_N_W@Z 000000018002c074     libucrt:output.obj
 0002:0000b084       $unwind$?type_case_a@?$output_processor@_WV?$stream_output_adapter@_W@__crt_stdio_output@@V?$standard_base@_WV?$stream_output_adapter@_W@__crt_stdio_output@@@2@@__crt_stdio_output@@AEAA_NXZ 000000018002c084     libucrt:output.obj
 0002:0000b084       $unwind$?type_case_a@?$output_processor@_WV?$string_output_adapter@_W@__crt_stdio_output@@V?$standard_base@_WV?$string_output_adapter@_W@__crt_stdio_output@@@2@@__crt_stdio_output@@AEAA_NXZ 000000018002c084     libucrt:output.obj
 0002:0000b094       $unwind$?write_stored_string_tchar@?$output_processor@_WV?$stream_output_adapter@_W@__crt_stdio_output@@V?$standard_base@_WV?$stream_output_adapter@_W@__crt_stdio_output@@@2@@__crt_stdio_output@@AEAA_N_W@Z 000000018002c094     libucrt:output.obj
 0002:0000b0a8       $unwind$?write_string@?$string_output_adapter@_W@__crt_stdio_output@@QEBAXQEB_WHQEAHAEAV__crt_deferred_errno_cache@@@Z 000000018002c0a8     libucrt:output.obj
 0002:0000b0c0       $unwind$?state_case_type@?$output_processor@_WV?$string_output_adapter@_W@__crt_stdio_output@@V?$standard_base@_WV?$string_output_adapter@_W@__crt_stdio_output@@@2@@__crt_stdio_output@@AEAA_NXZ 000000018002c0c0     libucrt:output.obj
 0002:0000b0e4       $unwind$?write_stored_string_tchar@?$output_processor@_WV?$string_output_adapter@_W@__crt_stdio_output@@V?$standard_base@_WV?$string_output_adapter@_W@__crt_stdio_output@@@2@@__crt_stdio_output@@AEAA_N_W@Z 000000018002c0e4     libucrt:output.obj
 0002:0000b0f8       $unwind$??$write_multiple_characters@V?$string_output_adapter@_W@__crt_stdio_output@@D@__crt_stdio_output@@YAXAEBV?$string_output_adapter@_W@0@DHQEAH@Z 000000018002c0f8     libucrt:output.obj
 0002:0000b104       $unwind$??$write_multiple_characters@V?$stream_output_adapter@D@__crt_stdio_output@@D@__crt_stdio_output@@YAXAEBV?$stream_output_adapter@D@0@DHQEAH@Z 000000018002c104     libucrt:output.obj
 0002:0000b104       $unwind$??$write_multiple_characters@V?$stream_output_adapter@_W@__crt_stdio_output@@D@__crt_stdio_output@@YAXAEBV?$stream_output_adapter@_W@0@DHQEAH@Z 000000018002c104     libucrt:output.obj
 0002:0000b11c       $unwind$??$type_case_integer_parse_into_buffer@I@?$output_processor@DV?$stream_output_adapter@D@__crt_stdio_output@@V?$standard_base@DV?$stream_output_adapter@D@__crt_stdio_output@@@2@@__crt_stdio_output@@AEAAXII_N@Z 000000018002c11c     libucrt:output.obj
 0002:0000b11c       $unwind$??$type_case_integer_parse_into_buffer@I@?$output_processor@_WV?$stream_output_adapter@_W@__crt_stdio_output@@V?$standard_base@_WV?$stream_output_adapter@_W@__crt_stdio_output@@@2@@__crt_stdio_output@@AEAAXII_N@Z 000000018002c11c     libucrt:output.obj
 0002:0000b11c       $unwind$??$type_case_integer_parse_into_buffer@I@?$output_processor@_WV?$string_output_adapter@_W@__crt_stdio_output@@V?$standard_base@_WV?$string_output_adapter@_W@__crt_stdio_output@@@2@@__crt_stdio_output@@AEAAXII_N@Z 000000018002c11c     libucrt:output.obj
 0002:0000b11c       $unwind$??$type_case_integer_parse_into_buffer@_K@?$output_processor@DV?$stream_output_adapter@D@__crt_stdio_output@@V?$standard_base@DV?$stream_output_adapter@D@__crt_stdio_output@@@2@@__crt_stdio_output@@AEAAX_KI_N@Z 000000018002c11c     libucrt:output.obj
 0002:0000b11c       $unwind$??$type_case_integer_parse_into_buffer@_K@?$output_processor@_WV?$stream_output_adapter@_W@__crt_stdio_output@@V?$standard_base@_WV?$stream_output_adapter@_W@__crt_stdio_output@@@2@@__crt_stdio_output@@AEAAX_KI_N@Z 000000018002c11c     libucrt:output.obj
 0002:0000b11c       $unwind$??$type_case_integer_parse_into_buffer@_K@?$output_processor@_WV?$string_output_adapter@_W@__crt_stdio_output@@V?$standard_base@_WV?$string_output_adapter@_W@__crt_stdio_output@@@2@@__crt_stdio_output@@AEAAX_KI_N@Z 000000018002c11c     libucrt:output.obj
 0002:0000b124       $unwind$??$?RV<lambda_fe5404e9642edbb7c8ae71e1dcfa4018>@@AEAV<lambda_36eeb330e99a4f0bf8a7da86d0894cb9>@@V<lambda_2fa474834de80dc12f7a3c6eddd7a366>@@@?$__crt_seh_guarded_call@H@@QEAAH$$QEAV<lambda_fe5404e9642edbb7c8ae71e1dcfa4018>@@AEAV<lambda_36eeb330e99a4f0bf8a7da86d0894cb9>@@$$QEAV<lambda_2fa474834de80dc12f7a3c6eddd7a366>@@@Z 000000018002c124     libucrt:output.obj
 0002:0000b148       $unwind$??$?RV<lambda_676bd5779251ec186b530f0a904b4b35>@@AEAV<lambda_b579ea784fd840951dfbcbdaebf709fd>@@V<lambda_10027885da78ada7fb00668d7e2e96b5>@@@?$__crt_seh_guarded_call@H@@QEAAH$$QEAV<lambda_676bd5779251ec186b530f0a904b4b35>@@AEAV<lambda_b579ea784fd840951dfbcbdaebf709fd>@@$$QEAV<lambda_10027885da78ada7fb00668d7e2e96b5>@@@Z 000000018002c148     libucrt:output.obj
 0002:0000b16c       $unwind$_query_new_handler 000000018002c16c     libucrt:new_handler.obj
 0002:0000b18c       $unwind$?common_exit@@YAXHW4_crt_exit_cleanup_mode@@W4_crt_exit_return_mode@@@Z 000000018002c18c     libucrt:exit.obj
 0002:0000b198       $unwind$??R<lambda_6e4b09c48022b2350581041d5f6b0c4c>@@QEBA@XZ 000000018002c198     libucrt:exit.obj
 0002:0000b1b8       $unwind$??$?RV<lambda_d80eeec6fff315bfe5c115232f3240e3>@@AEAV<lambda_6e4b09c48022b2350581041d5f6b0c4c>@@V<lambda_2358e3775559c9db80273638284d5e45>@@@?$__crt_seh_guarded_call@X@@QEAAX$$QEAV<lambda_d80eeec6fff315bfe5c115232f3240e3>@@AEAV<lambda_6e4b09c48022b2350581041d5f6b0c4c>@@$$QEAV<lambda_2358e3775559c9db80273638284d5e45>@@@Z 000000018002c1b8     libucrt:exit.obj
 0002:0000b1dc       $unwind$_configure_narrow_argv 000000018002c1dc     libucrt:argv_parsing.obj
 0002:0000b1f0       $unwind$??$free_environment@D@@YAXQEAPEAD@Z 000000018002c1f0     libucrt:environment_initialization.obj
 0002:0000b1f0       $unwind$??$free_environment@_W@@YAXQEAPEA_W@Z 000000018002c1f0     libucrt:environment_initialization.obj
 0002:0000b1fc       $unwind$??$create_environment@D@@YAQEAPEADQEAD@Z 000000018002c1fc     libucrt:environment_initialization.obj
 0002:0000b214       $unwind$_execute_onexit_table 000000018002c214     libucrt:onexit.obj
 0002:0000b21c       $unwind$??$?RV<lambda_7777bce6b2f8c936911f934f8298dc43>@@AEAV<lambda_f03950bc5685219e0bcd2087efbe011e>@@V<lambda_3883c3dff614d5e0c5f61bb1ac94921c>@@@?$__crt_seh_guarded_call@H@@QEAAH$$QEAV<lambda_7777bce6b2f8c936911f934f8298dc43>@@AEAV<lambda_f03950bc5685219e0bcd2087efbe011e>@@$$QEAV<lambda_3883c3dff614d5e0c5f61bb1ac94921c>@@@Z 000000018002c21c     libucrt:onexit.obj
 0002:0000b240       $unwind$terminate          000000018002c240     libucrt:terminate.obj
 0002:0000b260       $unwind$??$parse_integer@KV?$c_string_character_source@D@__crt_strtox@@@__crt_strtox@@YAKQEAU__crt_locale_pointers@@V?$c_string_character_source@D@0@H_N@Z 000000018002c260     libucrt:atox.obj
 0002:0000b27c       $unwind$??$parse_integer@KV?$c_string_character_source@_W@__crt_strtox@@@__crt_strtox@@YAKQEAU__crt_locale_pointers@@V?$c_string_character_source@_W@0@H_N@Z 000000018002c27c     libucrt:atox.obj
 0002:0000b298       $xdatasym                  000000018002c298     libucrt:strncmp.obj
 0002:0000b29c       $unwind$_free_base         000000018002c29c     libucrt:free_base.obj
 0002:0000b29c       $unwind$?destroy_fls@@YAXPEAX@Z 000000018002c29c     libucrt:per_thread_data.obj
 0002:0000b29c       $unwind$__acrt_locale_free_numeric 000000018002c29c     libucrt:initnum.obj
 0002:0000b29c       $unwind$__acrt_locale_free_lc_time_if_unreferenced 000000018002c29c     libucrt:locale_refcounting.obj
 0002:0000b2a4       $unwind$?construct_ptd_array@@YAXQEAU__acrt_ptd@@@Z 000000018002c2a4     libucrt:per_thread_data.obj
 0002:0000b2ac       $unwind$?destroy_ptd_array@@YAXQEAU__acrt_ptd@@@Z 000000018002c2ac     libucrt:per_thread_data.obj
 0002:0000b2b4       $unwind$??$?RV<lambda_0ae27a3a962d80f24befdcbee591983d>@@AEAV<lambda_8d0ee55de4b1038c4002e0adecdf1839>@@V<lambda_dc504788e8f1664fe9b84e20bfb512f2>@@@?$__crt_seh_guarded_call@X@@QEAAX$$QEAV<lambda_0ae27a3a962d80f24befdcbee591983d>@@AEAV<lambda_8d0ee55de4b1038c4002e0adecdf1839>@@$$QEAV<lambda_dc504788e8f1664fe9b84e20bfb512f2>@@@Z 000000018002c2b4     libucrt:per_thread_data.obj
 0002:0000b2d8       $unwind$??$?RV<lambda_aa87e3671a710a21b5dc78c0bdf72e11>@@AEAV<lambda_92619d2358a28f41a33ba319515a20b9>@@V<lambda_6992ecaafeb10aed2b74cb1fae11a551>@@@?$__crt_seh_guarded_call@X@@QEAAX$$QEAV<lambda_aa87e3671a710a21b5dc78c0bdf72e11>@@AEAV<lambda_92619d2358a28f41a33ba319515a20b9>@@$$QEAV<lambda_6992ecaafeb10aed2b74cb1fae11a551>@@@Z 000000018002c2d8     libucrt:per_thread_data.obj
 0002:0000b2fc       $unwind$??$?RV<lambda_f2e299630e499de9f9a165e60fcd3db5>@@AEAV<lambda_2ae9d31cdba2644fcbeaf08da7c24588>@@V<lambda_40d01ff24d0e7b3814fdbdcee8eab3c7>@@@?$__crt_seh_guarded_call@X@@QEAAX$$QEAV<lambda_f2e299630e499de9f9a165e60fcd3db5>@@AEAV<lambda_2ae9d31cdba2644fcbeaf08da7c24588>@@$$QEAV<lambda_40d01ff24d0e7b3814fdbdcee8eab3c7>@@@Z 000000018002c2fc     libucrt:per_thread_data.obj
 0002:0000b320       $unwind$??$?RV<lambda_2d41944a1d46af3157314b8a01080d33>@@AEAV<lambda_8f455de75cd7d7f24b4096f044d8b9e6>@@V<lambda_aa500f224e6afead328df44964fe2772>@@@?$__crt_seh_guarded_call@X@@QEAAX$$QEAV<lambda_2d41944a1d46af3157314b8a01080d33>@@AEAV<lambda_8f455de75cd7d7f24b4096f044d8b9e6>@@$$QEAV<lambda_aa500f224e6afead328df44964fe2772>@@@Z 000000018002c320     libucrt:per_thread_data.obj
 0002:0000b344       $unwind$__acrt_GetModuleFileNameA 000000018002c344     libucrt:getmodulefilenamea.obj
 0002:0000b360       $unwind$__dcrt_write_console 000000018002c360     libucrt:initcon.obj
 0002:0000b360       $unwind$??$__acrt_wcs_to_mbs_cp@U__crt_win32_buffer_no_resizing@@@@YAHQEB_WAEAV?$__crt_win32_buffer@DU__crt_win32_buffer_no_resizing@@@@I@Z 000000018002c360     libucrt:getmodulefilenamea.obj
 0002:0000b374       $unwind$?common_flush_all@@YAH_N@Z 000000018002c374     libucrt:fflush.obj
 0002:0000b37c       $unwind$??$?RV<lambda_842d9ff0dc9ef11c61343bbaebe7f885>@@AEAV<lambda_c5860995281e5c4ce005b3de8f5874ee>@@V<lambda_d90129c13df834fdcbf8d2b88dafcf2d>@@@?$__crt_seh_guarded_call@X@@QEAAX$$QEAV<lambda_842d9ff0dc9ef11c61343bbaebe7f885>@@AEAV<lambda_c5860995281e5c4ce005b3de8f5874ee>@@$$QEAV<lambda_d90129c13df834fdcbf8d2b88dafcf2d>@@@Z 000000018002c37c     libucrt:fflush.obj
 0002:0000b3a0       $unwind$??$?RV<lambda_886d6c58226a84441f68b9f2b8217b83>@@AEAV<lambda_ab61a845afdef5b7c387490eaf3616ee>@@V<lambda_f7f22ab5edc0698d5f6905b0d3f44752>@@@?$__crt_seh_guarded_call@X@@QEAAX$$QEAV<lambda_886d6c58226a84441f68b9f2b8217b83>@@AEAV<lambda_ab61a845afdef5b7c387490eaf3616ee>@@$$QEAV<lambda_f7f22ab5edc0698d5f6905b0d3f44752>@@@Z 000000018002c3a0     libucrt:fflush.obj
 0002:0000b3c8       $unwind$??$?RV<lambda_c376a267cfb53b6959b3b692ec76b120>@@AEAV<lambda_9a32fed5bf61b6b509b2d3f6003082a1>@@V<lambda_572fbb9fa0ab338edf41edfd4b5fcc8d>@@@?$__crt_seh_guarded_call@H@@QEAAH$$QEAV<lambda_c376a267cfb53b6959b3b692ec76b120>@@AEAV<lambda_9a32fed5bf61b6b509b2d3f6003082a1>@@$$QEAV<lambda_572fbb9fa0ab338edf41edfd4b5fcc8d>@@@Z 000000018002c3c8     libucrt:fflush.obj
 0002:0000b3ec       $unwind$setvbuf            000000018002c3ec     libucrt:setvbuf.obj
 0002:0000b3f4       $unwind$??$?RV<lambda_84ec643ea9557e2f7dc01bb0e9624395>@@AEAV<lambda_ca71763b3c0644891230e4f79ea54fa6>@@V<lambda_439a761618c59b0600e24586724d733b>@@@?$__crt_seh_guarded_call@H@@QEAAH$$QEAV<lambda_84ec643ea9557e2f7dc01bb0e9624395>@@AEAV<lambda_ca71763b3c0644891230e4f79ea54fa6>@@$$QEAV<lambda_439a761618c59b0600e24586724d733b>@@@Z 000000018002c3f4     libucrt:setvbuf.obj
 0002:0000b418       $unwind$__acrt_uninitialize_locale 000000018002c418     libucrt:wsetlocale.obj
 0002:0000b418       $unwind$__acrt_get_sigabrt_handler 000000018002c418     libucrt:signal.obj
 0002:0000b420       $unwind$raise              000000018002c420     libucrt:signal.obj
 0002:0000b45c       $unwind$??$?RV<lambda_450d765d439847d4c735a33c368b5fc0>@@AEAV<lambda_44731a7d0e6d81c3e6aa82d741081786>@@V<lambda_601a2a7da3b7a96e9554ac7215c4b07c>@@@?$__crt_seh_guarded_call@P6AXH@Z@@QEAAP6AXH@Z$$QEAV<lambda_450d765d439847d4c735a33c368b5fc0>@@AEAV<lambda_44731a7d0e6d81c3e6aa82d741081786>@@$$QEAV<lambda_601a2a7da3b7a96e9554ac7215c4b07c>@@@Z 000000018002c45c     libucrt:signal.obj
 0002:0000b480       $unwind$??$?RV<lambda_410d79af7f07d98d83a3f525b3859a53>@@AEAV<lambda_3e16ef9562a7dcce91392c22ab16ea36>@@V<lambda_38119f0e861e05405d8a144b9b982f0a>@@@?$__crt_seh_guarded_call@X@@QEAAX$$QEAV<lambda_410d79af7f07d98d83a3f525b3859a53>@@AEAV<lambda_3e16ef9562a7dcce91392c22ab16ea36>@@$$QEAV<lambda_38119f0e861e05405d8a144b9b982f0a>@@@Z 000000018002c480     libucrt:wsetlocale.obj
 0002:0000b4a8       $unwind$__acrt_initialize_winapi_thunks 000000018002c4a8     libucrt:winapi_thunks.obj
 0002:0000b4b0       $unwind$?fp_format_e@@YAHQEBNQEAD_K12H_NIQEAU__crt_locale_pointers@@@Z 000000018002c4b0     libucrt:cvt.obj
 0002:0000b4b0       $unwind$_mbtowc_l          000000018002c4b0     libucrt:mbtowc.obj
 0002:0000b4b0       $unwind$__acrt_LCMapStringEx 000000018002c4b0     libucrt:winapi_thunks.obj
 0002:0000b4c4       $unwind$__acrt_is_interactive 000000018002c4c4     libucrt:winapi_thunks.obj
 0002:0000b4d8       $unwind$_fcloseall         000000018002c4d8     libucrt:closeall.obj
 0002:0000b4fc       $unwind$__acrt_initialize_lowio 000000018002c4fc     libucrt:ioinit.obj
 0002:0000b51c       $unwind$?initialize_inherited_file_handles_nolock@@YAXXZ 000000018002c51c     libucrt:ioinit.obj
 0002:0000b538       $unwind$_wctomb_s_l        000000018002c538     libucrt:wctomb.obj
 0002:0000b548       $unwind$__acrt_fp_format   000000018002c548     libucrt:cvt.obj
 0002:0000b55c       $unwind$?fp_format_e_internal@@YAHQEAD_KH_NIQEAU_strflt@@2QEAU__crt_locale_pointers@@@Z 000000018002c55c     libucrt:cvt.obj
 0002:0000b574       $unwind$?fp_format_a@@YAHQEBNPEAD_KQEAD2H_NIQEAU__crt_locale_pointers@@@Z 000000018002c574     libucrt:cvt.obj
 0002:0000b590       $unwind$__dcrt_get_narrow_environment_from_os 000000018002c590     libucrt:get_environment_from_os.obj
 0002:0000b590       $unwind$?fp_format_f_internal@@YAHQEAD_KHQEAU_strflt@@_NQEAU__crt_locale_pointers@@@Z 000000018002c590     libucrt:cvt.obj
 0002:0000b590       $unwind$??$__acrt_wcs_to_mbs_cp@U__crt_win32_buffer_internal_dynamic_resizing@@@@YAHQEB_WAEAV?$__crt_win32_buffer@DU__crt_win32_buffer_internal_dynamic_resizing@@@@I@Z 000000018002c590     libucrt:argv_wildcards.obj
 0002:0000b5a8       $unwind$?fp_format_g@@YAHQEBNQEAD_K12H_NIQEAU__crt_locale_pointers@@@Z 000000018002c5a8     libucrt:cvt.obj
 0002:0000b5bc       $unwind$_fputwc_nolock     000000018002c5bc     libucrt:fputwc.obj
 0002:0000b5d8       $unwind$__acrt_stdio_end_temporary_buffering_nolock 000000018002c5d8     libucrt:_sftbuf.obj
 0002:0000b5e0       $unwind$??$__acrt_mbs_to_wcs_cp@U__crt_win32_buffer_internal_dynamic_resizing@@@@YAHQEBDAEAV?$__crt_win32_buffer@_WU__crt_win32_buffer_internal_dynamic_resizing@@@@I@Z 000000018002c5e0     libucrt:argv_wildcards.obj
 0002:0000b5f8       $unwind$??$common_expand_argv_wildcards@D@@YAHQEAPEADQEAPEAPEAD@Z 000000018002c5f8     libucrt:argv_wildcards.obj
 0002:0000b610       $unwind$??$copy_and_add_argument_to_buffer@D@@YAHQEBD0_KAEAV?$argument_list@D@?A0x5f5c8891@@@Z 000000018002c610     libucrt:argv_wildcards.obj
 0002:0000b62c       $unwind$??$expand_argument_wildcards@D@@YAHQEAD0AEAV?$argument_list@D@?A0x5f5c8891@@@Z 000000018002c62c     libucrt:argv_wildcards.obj
 0002:0000b650       $unwind$_setmbcp_nolock    000000018002c650     libucrt:mbctype.obj
 0002:0000b670       $unwind$?update_thread_multibyte_data_internal@@YAPEAU__crt_multibyte_data@@QEAU__acrt_ptd@@QEAPEAU1@@Z 000000018002c670     libucrt:mbctype.obj
 0002:0000b698       $unwind$?setmbcp_internal@@YAHH_NQEAU__acrt_ptd@@QEAPEAU__crt_multibyte_data@@@Z 000000018002c698     libucrt:mbctype.obj
 0002:0000b6a8       $unwind$?setSBUpLow@@YAXPEAU__crt_multibyte_data@@@Z 000000018002c6a8     libucrt:mbctype.obj
 0002:0000b6c4       $unwind$??$?RV<lambda_efdfa57d1f175319df784efa44bb7b81>@@AEAV<lambda_5f0a4c1567f8adc6734073e5d1e1b35c>@@V<lambda_2e8a7d3640ea6ccb4c2413664c2db6fd>@@@?$__crt_seh_guarded_call@X@@QEAAX$$QEAV<lambda_efdfa57d1f175319df784efa44bb7b81>@@AEAV<lambda_5f0a4c1567f8adc6734073e5d1e1b35c>@@$$QEAV<lambda_2e8a7d3640ea6ccb4c2413664c2db6fd>@@@Z 000000018002c6c4     libucrt:mbctype.obj
 0002:0000b6e8       $unwind$?x_ismbbtype_l@@YAHPEAU__crt_locale_pointers@@IHH@Z 000000018002c6e8     libucrt:ismbbyte.obj
 0002:0000b6f8       $unwind$__GSHandlerCheckCommon 000000018002c6f8     LIBCMT:gshandler.obj
 0002:0000b6f8       $unwind$__acrt_WideCharToMultiByte 000000018002c6f8     libucrt:widechartomultibyte.obj
 0002:0000b700       $unwind$iswctype           000000018002c700     libucrt:iswctype.obj
 0002:0000b70c       $unwind$_isctype_l         000000018002c70c     libucrt:isctype.obj
 0002:0000b728       $unwind$__acrt_update_thread_locale_data 000000018002c728     libucrt:locale_refcounting.obj
 0002:0000b74c       $unwind$?__mbsrtowcs_utf8@__crt_mbstring@@YA_KPEA_WPEAPEBD_KPEAU_Mbstatet@@@Z 000000018002c74c     libucrt:mbrtowc.obj
 0002:0000b764       $unwind$_close             000000018002c764     libucrt:close.obj
 0002:0000b764       $unwind$_commit            000000018002c764     libucrt:commit.obj
 0002:0000b76c       $unwind$??$?RV<lambda_a37b2b86f63e897a80ea819b0eb08c01>@@AEAV<lambda_38ce7e780aa69e748d6df282ebc68efe>@@V<lambda_99fb1378e971ab6e7edea83e3a7a83a2>@@@?$__crt_seh_guarded_call@H@@QEAAH$$QEAV<lambda_a37b2b86f63e897a80ea819b0eb08c01>@@AEAV<lambda_38ce7e780aa69e748d6df282ebc68efe>@@$$QEAV<lambda_99fb1378e971ab6e7edea83e3a7a83a2>@@@Z 000000018002c76c     libucrt:commit.obj
 0002:0000b790       $unwind$_write             000000018002c790     libucrt:write.obj
 0002:0000b7c0       $unwind$_write_nolock      000000018002c7c0     libucrt:write.obj
 0002:0000b7d8       $unwind$?write_double_translated_ansi_nolock@@YA?AUwrite_result@?A0x17268360@@HQEBDI@Z 000000018002c7d8     libucrt:write.obj
 0002:0000b7fc       $unwind$?write_text_ansi_nolock@@YA?AUwrite_result@?A0x17268360@@HQEBDI@Z 000000018002c7fc     libucrt:write.obj
 0002:0000b7fc       $unwind$?write_text_utf16le_nolock@@YA?AUwrite_result@?A0x17268360@@HQEBDI@Z 000000018002c7fc     libucrt:write.obj
 0002:0000b81c       $unwind$?write_text_utf8_nolock@@YA?AUwrite_result@?A0x17268360@@HQEBDI@Z 000000018002c81c     libucrt:write.obj
 0002:0000b840       $unwind$__acrt_locale_free_monetary 000000018002c840     libucrt:initmon.obj
 0002:0000b848       $unwind$__acrt_locale_free_time 000000018002c848     libucrt:inittime.obj
 0002:0000b858       $unwind$__acrt_GetStringTypeA 000000018002c858     libucrt:getstringtypea.obj
 0002:0000b880       $unwind$fclose             000000018002c880     libucrt:fclose.obj
 0002:0000b8a4       $unwind$__acrt_lowio_destroy_handle_array 000000018002c8a4     libucrt:osfinfo.obj
 0002:0000b8b4       $unwind$__acrt_lowio_ensure_fh_exists 000000018002c8b4     libucrt:osfinfo.obj
 0002:0000b8e0       $unwind$__acrt_fltout      000000018002c8e0     libucrt:cfout.obj
 0002:0000b900       $unwind$?divide@__crt_strtox@@YA_KAEAUbig_integer@1@AEBU21@@Z 000000018002c900     libucrt:cfout.obj
 0002:0000b918       $chain$0$?divide@__crt_strtox@@YA_KAEAUbig_integer@1@AEBU21@@Z 000000018002c918     libucrt:cfout.obj
 0002:0000b92c       $chain$1$?divide@__crt_strtox@@YA_KAEAUbig_integer@1@AEBU21@@Z 000000018002c92c     libucrt:cfout.obj
 0002:0000b93c       $unwind$??$write_buffer_nolock@D@@YA_NDV__crt_stdio_stream@@@Z 000000018002c93c     libucrt:_flsbuf.obj
 0002:0000b94c       $unwind$??$write_buffer_nolock@_W@@YA_N_WV__crt_stdio_stream@@@Z 000000018002c94c     libucrt:_flsbuf.obj
 0002:0000b95c       $unwind$qsort              000000018002c95c     libucrt:qsort.obj
 0002:0000b974       $chain$4$qsort             000000018002c974     libucrt:qsort.obj
 0002:0000b998       $chain$5$qsort             000000018002c998     libucrt:qsort.obj
 0002:0000b9a8       $unwind$fallbackMethod     000000018002c9a8     libucrt:strpbrk.obj
 0002:0000b9b8       $unwind$__acrt_LCMapStringA 000000018002c9b8     libucrt:lcmapstringa.obj
 0002:0000b9c8       $unwind$?__acrt_LCMapStringA_stat@@YAHPEAU__crt_locale_pointers@@PEB_WKPEBDHPEADHHH@Z 000000018002c9c8     libucrt:lcmapstringa.obj
 0002:0000b9f0       $unwind$?__mbrtoc32_utf8@__crt_mbstring@@YA_KPEA_UPEBD_KPEAU_Mbstatet@@@Z 000000018002c9f0     libucrt:mbrtoc32.obj
 0002:0000ba0c       $unwind$??$common_lseek@_J@@YA_JH_JH@Z 000000018002ca0c     libucrt:lseek.obj
 0002:0000ba3c       $unwind$_putwch_nolock     000000018002ca3c     libucrt:putwch.obj
 0002:0000ba44       $unwind$??$?RV<lambda_751a882b2c74d4b022dec766aa51a29a>@@AEAV<lambda_628dfdc04ba53c8bfc02c9951375f3f5>@@V<lambda_f6c7be5f7998530c34de24c7437d6b54>@@@?$__crt_seh_guarded_call@H@@QEAAH$$QEAV<lambda_751a882b2c74d4b022dec766aa51a29a>@@AEAV<lambda_628dfdc04ba53c8bfc02c9951375f3f5>@@$$QEAV<lambda_f6c7be5f7998530c34de24c7437d6b54>@@@Z 000000018002ca44     libucrt:close.obj
 0002:0000ba68       $xdatasym                  000000018002ca68     libucrt:log10.obj
 0002:0000ba74       $unwind$__acrt_fenv_set_control 000000018002ca74     libucrt:_fenvutils.obj
 0002:0000ba84       $unwind$_call_matherr      000000018002ca84     libucrt:libm_error.obj
 0002:0000ba8c       $unwind$_handle_error      000000018002ca8c     libucrt:libm_error.obj
 0002:0000baac       $unwind$__acrt_initialize_fma3 000000018002caac     libucrt:fma3_available.obj
 0002:0000bab4       $unwind$_log_special_common 000000018002cab4     libucrt:log_special.obj
 0002:0000bac0       $xdatasym                  000000018002cac0     libucrt:fpsr.obj
 0002:0000bac8       $unwind$_raise_exc_ex      000000018002cac8     libucrt:fpexcept.obj
 0002:0000badc       $unwind$_ctrlfp            000000018002cadc     libucrt:fpctrl.obj
 0002:0000bb04       $unwind$?DloadObtainSection@@YAPEAXPEAK0@Z 000000018002cb04     DelayImp:delayhlp.obj
 0002:0000bb14       $unwind$?DloadMakePermanentImageCommit@@YAXPEAX_K@Z 000000018002cb14     DelayImp:delayhlp.obj
 0002:0000bb20       $unwind$?DloadProtectSection@@YAXKPEAK@Z 000000018002cb20     DelayImp:delayhlp.obj
 0002:0000bb30       $unwind$__delayLoadHelper2 000000018002cb30     DelayImp:delayhlp.obj
 0002:0000bb4c       $unwind$_IsNonwritableInCurrentImage 000000018002cb4c     LIBCMT:pesect.obj
 0002:0000bb70       $xdatasym                  000000018002cb70     LIBCMT:chkstk.obj
 0002:0000bb78       $xdatasym                  000000018002cb78     libvcruntime:memcmp.obj
 0002:0000cd60       .edata                     000000018002dd60     scrypt.exp
 0002:0000cd88       rgpv                       000000018002dd88     scrypt.exp
 0002:0000cd8c       rgszName                   000000018002dd8c     scrypt.exp
 0002:0000cd90       rgwOrd                     000000018002dd90     scrypt.exp
 0002:0000cd92       szName                     000000018002dd92     scrypt.exp
 0002:0000cd9e       $N00001                    000000018002dd9e     scrypt.exp
 0002:0000d05c       .idata$6                   000000018002e05c     kernel32:KERNEL32.dll
 0003:00000030       ?__vcrt_flsindex@@3KA      000000018002f030     libvcruntime:per_thread_data.obj
 0003:00000040       ?errno_no_memory@@3HA      000000018002f040     libucrt:errno.obj
 0003:00000044       ?doserrno_no_memory@@3KA   000000018002f044     libucrt:errno.obj
 0003:00000160       ?__acrt_flsindex@@3KA      000000018002f160     libucrt:per_thread_data.obj
 0003:00000560       _mbctypes                  000000018002f560     libucrt:mbctype.obj
 0003:00000670       _mbcasemaps                000000018002f670     libucrt:mbctype.obj
 0003:00000770       ?__rgctypeflag@@3PADA      000000018002f770     libucrt:mbctype.obj
 0003:00000780       ?__rgcode_page_info@@3PAUcode_page_info@@A 000000018002f780     libucrt:mbctype.obj
 0003:00000a20       ?__dcrt_lowio_console_output_handle@@3PEAXEA 000000018002fa20     libucrt:initcon.obj
 0003:00000a30       ?dazSupported@?1??_ctrlfp@@9@9 000000018002fa30     libucrt:fpctrl.obj
 0003:00000a60       _module                    000000018002fa60     scrypt_node.obj
 0003:00000aa0       PAD                        000000018002faa0     scrypt_lib:sha256.obj
 0003:00000ae0       testcase                   000000018002fae0     scrypt_lib:crypto_scrypt.obj
 0003:00000df0       ?__proc_attached@@3HA      000000018002fdf0     LIBCMT:dll_dllmain.obj
 0003:00000e08       ?is_initialized_as_dll@@3_NA 000000018002fe08     LIBCMT:utility.obj
 0003:00000e09       ?module_local_atexit_table_initialized@@3_NA 000000018002fe09     LIBCMT:utility.obj
 0003:00000e10       ?module_local_atexit_table@@3U_onexit_table_t@@A 000000018002fe10     LIBCMT:utility.obj
 0003:00000e28       ?module_local_at_quick_exit_table@@3U_onexit_table_t@@A 000000018002fe28     LIBCMT:utility.obj
 0003:00000e40       GS_ExceptionRecord         000000018002fe40     LIBCMT:gs_report.obj
 0003:00000ee0       GS_ContextRecord           000000018002fee0     LIBCMT:gs_report.obj
 0003:000013e0       ?__vcrt_startup_thread_ptd@@3U__vcrt_ptd@@A 00000001800303e0     libvcruntime:per_thread_data.obj
 0003:00001468       __vcrt_lock_table          0000000180030468     libvcruntime:locks.obj
 0003:00001490       __vcrt_locks_initialized   0000000180030490     libvcruntime:locks.obj
 0003:000014d8       ?heap@@3V_HeapManager@@A   00000001800304d8     libvcruntime:undname.obj
 0003:00001500       ?module_handles@@3PAPEAUHINSTANCE__@@A 0000000180030500     libvcruntime:winapi_downlevel.obj
 0003:00001518       ?function_pointers@@3PAPEAXA 0000000180030518     libvcruntime:winapi_downlevel.obj
 0003:00001540       ?__acrt_invalid_parameter_handler@@3V?$dual_state_global@P6AXPEB_W00I_K@Z@__crt_state_management@@A 0000000180030540     libucrt:invalid_parameter.obj
 0003:00001560       ?__acrt_new_handler@@3V?$dual_state_global@P6AH_K@Z@__crt_state_management@@A 0000000180030560     libucrt:new_handler.obj
 0003:00001568       ?c_termination_complete@@3JA 0000000180030568     libucrt:exit.obj
 0003:00001570       ?thread_local_exit_callback_func@@3P6AXPEAXK0@ZEA 0000000180030570     libucrt:exit.obj
 0003:00001580       ?program_name@?1???$common_configure_argv@D@@YAHW4_crt_argv_mode@@@Z@4PADA 0000000180030580     libucrt:argv_parsing.obj
 0003:000016d8       ?__acrt_app_type@@3W4_crt_app_type@@A 00000001800306d8     libucrt:report_runtime_error.obj
 0003:000016dc       __acrt_error_mode          00000001800306dc     libucrt:set_error_mode.obj
 0003:000016e0       ?ctrlc_action@@3V?$dual_state_global@P6AXH@Z@__crt_state_management@@A 00000001800306e0     libucrt:signal.obj
 0003:000016e8       ?ctrlbreak_action@@3V?$dual_state_global@P6AXH@Z@__crt_state_management@@A 00000001800306e8     libucrt:signal.obj
 0003:000016f0       ?abort_action@@3V?$dual_state_global@P6AXH@Z@__crt_state_management@@A 00000001800306f0     libucrt:signal.obj
 0003:000016f8       ?term_action@@3V?$dual_state_global@P6AXH@Z@__crt_state_management@@A 00000001800306f8     libucrt:signal.obj
 0003:00001710       ?module_handles@@3PAPEAUHINSTANCE__@@A 0000000180030710     libucrt:winapi_thunks.obj
 0003:000017b0       ?encoded_function_pointers@@3PAPEAXA 00000001800307b0     libucrt:winapi_thunks.obj
 0003:00001cc8       ?internal_state@?1??_mbtowc_l@@9@4U_Mbstatet@@A 0000000180030cc8     libucrt:mbtowc.obj
 0003:00001cd0       ?enable_percent_n@@3_KA    0000000180030cd0     libucrt:printf_count_output.obj
 0003:00001cf0       ?__acrt_lock_table@@3PAU_RTL_CRITICAL_SECTION@@A 0000000180030cf0     libucrt:locks.obj
 0003:00001f20       ?__acrt_locks_initialized@@3IA 0000000180030f20     libucrt:locks.obj
 0003:00001f24       ?state_cache@?1???$get_cached_win_policy@Udeveloper_information_policy_properties@?1??__acrt_get_developer_information_policy@@YA?AW4developer_information_policy@@XZ@@@YA?AW4developer_information_policy@@W4AppPolicyShowDeveloperDiagnostic@@@Z@4JA 0000000180030f24     libucrt:win_policies.obj
 0003:00001f28       ?state_cache@?1???$get_cached_win_policy@Uwindowing_model_policy_properties@?1??__acrt_get_windowing_model_policy@@YA?AW4windowing_model_policy@@XZ@@@YA?AW4windowing_model_policy@@W4AppPolicyWindowingModel@@@Z@4JA 0000000180030f28     libucrt:win_policies.obj
 0003:00001f48       ?fSystemSet@@3HA           0000000180030f48     libucrt:mbctype.obj
 0003:00001f4c       ?initialized@?1??__acrt_initialize_multibyte@@9@4_NA 0000000180030f4c     libucrt:mbctype.obj
 0003:00001f88       ?user_matherr@@3V?$dual_state_global@P6AHPEAU_exception@@@Z@__crt_state_management@@A 0000000180030f88     libucrt:matherr.obj
 0003:00001f90       ?__acrt_global_new_mode@@3V?$dual_state_global@J@__crt_state_management@@A 0000000180030f90     libucrt:new_mode.obj
 0003:00001fa0       ?internal_pst@?1??__mbrtoc32_utf8@__crt_mbstring@@YA_KPEA_UPEBD_KPEAU_Mbstatet@@@Z@4U3@A 0000000180030fa0     libucrt:mbrtoc32.obj
 0003:00001fe0       smix_func                  0000000180030fe0     scrypt_lib:crypto_scrypt.obj
 0003:00001fe8       name                       0000000180030fe8     scrypt_lib:warnp.obj
 0004:0000000c       $pdata$??0exception@std@@QEAA@AEBV01@@Z 000000018003200c     libcpmt:xthrow.obj
 0004:00000018       $pdata$??_Gbad_array_new_length@std@@UEAAPEAXI@Z 0000000180032018     LIBCMT:throw_bad_alloc.obj
 0004:00000018       $pdata$??_Gbad_alloc@std@@UEAAPEAXI@Z 0000000180032018     libcpmt:xthrow.obj
 0004:00000018       $pdata$??_Gexception@std@@UEAAPEAXI@Z 0000000180032018     libcpmt:xthrow.obj
 0004:00000018       $pdata$??_Glength_error@std@@UEAAPEAXI@Z 0000000180032018     libcpmt:xthrow.obj
 0004:00000018       $pdata$??_Glogic_error@std@@UEAAPEAXI@Z 0000000180032018     libcpmt:xthrow.obj
 0004:00000018       $pdata$??_Gbad_exception@std@@UEAAPEAXI@Z 0000000180032018     libvcruntime:frame.obj
 0004:00000024       $pdata$??0bad_alloc@std@@QEAA@AEBV01@@Z 0000000180032024     libcpmt:xthrow.obj
 0004:00000030       $pdata$?_Xlength_error@std@@YAXPEBD@Z 0000000180032030     libcpmt:xthrow.obj
 0004:0000003c       $pdata$??0logic_error@std@@QEAA@AEBV01@@Z 000000018003203c     libcpmt:xthrow.obj
 0004:00000048       $pdata$??0length_error@std@@QEAA@PEBD@Z 0000000180032048     libcpmt:xthrow.obj
 0004:00000054       $pdata$??0length_error@std@@QEAA@AEBV01@@Z 0000000180032054     libcpmt:xthrow.obj
 0004:0000006c       $pdata$??2@YAPEAX_K@Z      000000018003206c     LIBCMT:new_scalar.obj
 0004:00000078       $pdata$?dllmain_crt_process_attach@@YAHQEAUHINSTANCE__@@QEAX@Z 0000000180032078     LIBCMT:dll_dllmain.obj
 0004:00000084       $pdata$?fin$0@?0??dllmain_crt_process_attach@@YAHQEAUHINSTANCE__@@QEAX@Z@4HA 0000000180032084     LIBCMT:dll_dllmain.obj
 0004:00000090       $pdata$?dllmain_crt_process_detach@@YAH_N@Z 0000000180032090     LIBCMT:dll_dllmain.obj
 0004:0000009c       $pdata$?fin$0@?0??dllmain_crt_process_detach@@YAH_N@Z@4HA 000000018003209c     LIBCMT:dll_dllmain.obj
 0004:000000a8       $pdata$?dllmain_crt_dispatch@@YAHQEAUHINSTANCE__@@KQEAX@Z 00000001800320a8     LIBCMT:dll_dllmain.obj
 0004:000000b4       $pdata$?dllmain_dispatch@@YAHQEAUHINSTANCE__@@KQEAX@Z 00000001800320b4     LIBCMT:dll_dllmain.obj
 0004:000000c0       $pdata$?filt$0@?0??dllmain_dispatch@@YAHQEAUHINSTANCE__@@KQEAX@Z@4HA 00000001800320c0     LIBCMT:dll_dllmain.obj
 0004:000000cc       $pdata$_DllMainCRTStartup  00000001800320cc     LIBCMT:dll_dllmain.obj
 0004:000000d8       $pdata$__scrt_is_nonwritable_in_current_image 00000001800320d8     LIBCMT:utility.obj
 0004:000000e4       $pdata$__scrt_is_nonwritable_in_current_image$filt$0 00000001800320e4     LIBCMT:utility.obj
 0004:000000f0       $pdata$__scrt_acquire_startup_lock 00000001800320f0     LIBCMT:utility.obj
 0004:000000fc       $pdata$__scrt_release_startup_lock 00000001800320fc     LIBCMT:utility.obj
 0004:00000108       $pdata$__scrt_initialize_crt 0000000180032108     LIBCMT:utility.obj
 0004:00000114       $pdata$__scrt_uninitialize_crt 0000000180032114     LIBCMT:utility.obj
 0004:00000120       $pdata$__scrt_initialize_onexit_tables 0000000180032120     LIBCMT:utility.obj
 0004:0000012c       $pdata$__scrt_dllmain_exception_filter 000000018003212c     LIBCMT:utility.obj
 0004:00000138       $pdata$__scrt_dllmain_before_initialize_c 0000000180032138     LIBCMT:utility.obj
 0004:00000144       $pdata$__scrt_dllmain_after_initialize_c 0000000180032144     LIBCMT:utility.obj
 0004:00000150       $pdata$__scrt_dllmain_uninitialize_c 0000000180032150     LIBCMT:utility.obj
 0004:0000015c       $pdata$__scrt_dllmain_uninitialize_critical 000000018003215c     LIBCMT:utility.obj
 0004:00000168       $pdata$__scrt_dllmain_crt_thread_attach 0000000180032168     LIBCMT:utility.obj
 0004:00000174       $pdata$__scrt_dllmain_crt_thread_detach 0000000180032174     LIBCMT:utility.obj
 0004:00000180       $pdata$??_Gtype_info@@UEAAPEAXI@Z 0000000180032180     LIBCMT:std_type_info_static.obj
 0004:0000018c       $pdata$__report_securityfailure 000000018003218c     LIBCMT:gs_report.obj
 0004:00000198       $pdata$__report_rangecheckfailure 0000000180032198     LIBCMT:gs_report.obj
 0004:000001a4       $pdata$__report_gsfailure  00000001800321a4     LIBCMT:gs_report.obj
 0004:000001b0       $pdata$capture_current_context 00000001800321b0     LIBCMT:gs_report.obj
 0004:000001bc       $pdata$capture_previous_context 00000001800321bc     LIBCMT:gs_report.obj
 0004:000001c8       $pdata$__raise_securityfailure 00000001800321c8     LIBCMT:gs_report.obj
 0004:000001d4       $pdata$??0bad_array_new_length@std@@QEAA@AEBV01@@Z 00000001800321d4     LIBCMT:throw_bad_alloc.obj
 0004:000001e0       $pdata$?__scrt_throw_std_bad_alloc@@YAXXZ 00000001800321e0     LIBCMT:throw_bad_alloc.obj
 0004:000001ec       $pdata$?__scrt_throw_std_bad_array_new_length@@YAXXZ 00000001800321ec     LIBCMT:throw_bad_alloc.obj
 0004:000001f8       $pdata$__security_init_cookie 00000001800321f8     LIBCMT:gs_support.obj
 0004:00000204       $pdata$__scrt_initialize_default_local_stdio_options 0000000180032204     LIBCMT:default_local_stdio_options.obj
 0004:00000210       $pdata$__scrt_fastfail     0000000180032210     LIBCMT:utility_desktop.obj
 0004:0000021c       $pdata$_RTC_Initialize     000000018003221c     LIBCMT:initsect.obj
 0004:00000228       $pdata$_RTC_Terminate      0000000180032228     LIBCMT:initsect.obj
 0004:00000234       $pdata$__isa_available_init 0000000180032234     LIBCMT:cpu_disp.obj
 0004:0000024c       $pdata$?DecompFuncInfo@FH4@@YA_JPEAEAEAUFuncInfo4@1@_KH_N@Z 000000018003224c     libvcruntime:risctrnsctrl.obj
 0004:00000258       $pdata$?FrameUnwindToEmptyState@__FrameHandler4@@SAXPEA_KPEAU_xDISPATCHER_CONTEXT@@PEAUFuncInfo4@FH4@@@Z 0000000180032258     libvcruntime:risctrnsctrl.obj
 0004:00000264       $pdata$?UnwindNestedFrames@__FrameHandler4@@SAXPEA_KPEAUEHExceptionRecord@@PEAU_CONTEXT@@0PEAXPEAUFuncInfo4@FH4@@HHPEAUHandlerType4@5@PEAU_xDISPATCHER_CONTEXT@@E@Z 0000000180032264     libvcruntime:risctrnsctrl.obj
 0004:00000270       $pdata$?GetRangeOfTrysToCheck@__FrameHandler4@@SA?AU?$pair@Viterator@TryBlockMap4@FH4@@V123@@std@@AEAVTryBlockMap4@FH4@@HPEAU_xDISPATCHER_CONTEXT@@PEAUFuncInfo4@5@H@Z 0000000180032270     libvcruntime:risctrnsctrl.obj
 0004:0000027c       $pdata$_GetImageBase       000000018003227c     libvcruntime:risctrnsctrl.obj
 0004:00000288       $pdata$_SetImageBase       0000000180032288     libvcruntime:risctrnsctrl.obj
 0004:00000294       $pdata$_GetThrowImageBase  0000000180032294     libvcruntime:risctrnsctrl.obj
 0004:000002a0       $pdata$_SetThrowImageBase  00000001800322a0     libvcruntime:risctrnsctrl.obj
 0004:000002ac       $pdata$_CreateFrameInfo    00000001800322ac     libvcruntime:risctrnsctrl.obj
 0004:000002b8       $pdata$_FindAndUnlinkFrame 00000001800322b8     libvcruntime:risctrnsctrl.obj
 0004:000002c4       $pdata$__CxxFrameHandler4  00000001800322c4     libvcruntime:risctrnsctrl.obj
 0004:000002d0       $pdata$??$_CallSETranslator@V__FrameHandler4@@@@YAHPEAUEHExceptionRecord@@PEA_KPEAU_CONTEXT@@PEAU_xDISPATCHER_CONTEXT@@PEAUFuncInfo4@FH4@@K1@Z 00000001800322d0     libvcruntime:risctrnsctrl.obj
 0004:000002dc       $pdata$?filt$0@?0???$_CallSETranslator@V__FrameHandler4@@@@YAHPEAUEHExceptionRecord@@PEA_KPEAU_CONTEXT@@PEAU_xDISPATCHER_CONTEXT@@PEAUFuncInfo4@FH4@@K1@Z@4HA 00000001800322dc     libvcruntime:risctrnsctrl.obj
 0004:000002e8       $pdata$__std_terminate     00000001800322e8     libvcruntime:ehhelpers.obj
 0004:000002f4       $pdata$_IsExceptionObjectToBeDestroyed 00000001800322f4     libvcruntime:ehhelpers.obj
 0004:00000300       $pdata$__FrameUnwindFilter 0000000180032300     libvcruntime:ehhelpers.obj
 0004:0000030c       $pdata$__DestructExceptionObject 000000018003230c     libvcruntime:ehhelpers.obj
 0004:00000318       $pdata$__DestructExceptionObject$filt$0 0000000180032318     libvcruntime:ehhelpers.obj
 0004:00000324       $pdata$_purecall           0000000180032324     libvcruntime:purevirt.obj
 0004:00000330       $pdata$__std_exception_copy 0000000180032330     libvcruntime:std_exception.obj
 0004:0000033c       $pdata$__std_exception_destroy 000000018003233c     libvcruntime:std_exception.obj
 0004:00000348       $pdata$_CxxThrowException  0000000180032348     libvcruntime:throw.obj
 0004:00000354       $pdata$__C_specific_handler 0000000180032354     libvcruntime:riscchandler.obj
 0004:00000360       $pdata$__vcrt_initialize   0000000180032360     libvcruntime:initialization.obj
 0004:0000036c       $pdata$__vcrt_uninitialize 000000018003236c     libvcruntime:initialization.obj
 0004:00000378       $pdata$__vcrt_uninitialize_critical 0000000180032378     libvcruntime:initialization.obj
 0004:00000384       $pdata$__vcrt_thread_attach 0000000180032384     libvcruntime:initialization.obj
 0004:00000390       $pdata$__vcrt_thread_detach 0000000180032390     libvcruntime:initialization.obj
 0004:0000039c       $pdata$__std_type_info_destroy_list 000000018003239c     libvcruntime:std_type_info.obj
 0004:000003c0       $pdata$__vcrt_initialize_ptd 00000001800323c0     libvcruntime:per_thread_data.obj
 0004:000003cc       $pdata$__vcrt_uninitialize_ptd 00000001800323cc     libvcruntime:per_thread_data.obj
 0004:000003d8       $pdata$__vcrt_getptd       00000001800323d8     libvcruntime:per_thread_data.obj
 0004:000003e4       $pdata$__vcrt_getptd_noexit 00000001800323e4     libvcruntime:per_thread_data.obj
 0004:000003f0       $pdata$__vcrt_freeptd      00000001800323f0     libvcruntime:per_thread_data.obj
 0004:000003fc       $pdata$__vcrt_freefls      00000001800323fc     libvcruntime:per_thread_data.obj
 0004:00000408       $pdata$?StateFromIp@__FrameHandler4@@SAHPEAUFuncInfo4@FH4@@PEAU_xDISPATCHER_CONTEXT@@_K@Z 0000000180032408     libvcruntime:ehstate.obj
 0004:00000414       $pdata$?getStartStop@UWMap4@FH4@@QEAAXHHAEAViterator@12@0@Z 0000000180032414     libvcruntime:frame.obj
 0004:00000420       $pdata$?getStateFromIterators@UWMap4@FH4@@SAHAEBViterator@12@H0H0@Z 0000000180032420     libvcruntime:frame.obj
 0004:0000042c       $pdata$??0HandlerMap4@FH4@@QEAA@PEBUTryBlockMapEntry4@1@_KH@Z 000000018003242c     libvcruntime:frame.obj
 0004:00000438       $pdata$?FrameUnwindToState@__FrameHandler4@@SAXPEA_KPEAU_xDISPATCHER_CONTEXT@@PEAUFuncInfo4@FH4@@H@Z 0000000180032438     libvcruntime:frame.obj
 0004:00000444       $pdata$?filt$0@?0??FrameUnwindToState@__FrameHandler4@@SAXPEA_KPEAU_xDISPATCHER_CONTEXT@@PEAUFuncInfo4@FH4@@H@Z@4HA 0000000180032444     libvcruntime:frame.obj
 0004:00000450       $pdata$?fin$1@?0??FrameUnwindToState@__FrameHandler4@@SAXPEA_KPEAU_xDISPATCHER_CONTEXT@@PEAUFuncInfo4@FH4@@H@Z@4HA 0000000180032450     libvcruntime:frame.obj
 0004:0000045c       $pdata$?CxxCallCatchBlock@__FrameHandler4@@SAPEAXPEAU_EXCEPTION_RECORD@@@Z 000000018003245c     libvcruntime:frame.obj
 0004:00000468       $pdata$?filt$0@?0??CxxCallCatchBlock@__FrameHandler4@@SAPEAXPEAU_EXCEPTION_RECORD@@@Z@4HA 0000000180032468     libvcruntime:frame.obj
 0004:00000474       $pdata$?fin$1@?0??CxxCallCatchBlock@__FrameHandler4@@SAPEAXPEAU_EXCEPTION_RECORD@@@Z@4HA 0000000180032474     libvcruntime:frame.obj
 0004:00000480       $pdata$??0bad_exception@std@@QEAA@AEBV01@@Z 0000000180032480     libvcruntime:frame.obj
 0004:0000048c       $pdata$?ExFilterRethrow@@YAHPEAU_EXCEPTION_POINTERS@@PEAUEHExceptionRecord@@PEAH@Z 000000018003248c     libvcruntime:frame.obj
 0004:00000498       $pdata$?ExFilterRethrowFH4@@YAHPEAU_EXCEPTION_POINTERS@@PEAUEHExceptionRecord@@HPEAH@Z 0000000180032498     libvcruntime:frame.obj
 0004:000004a4       $pdata$?IsInExceptionSpec@@YAEPEAUEHExceptionRecord@@PEBU_s_ESTypeList@@@Z 00000001800324a4     libvcruntime:frame.obj
 0004:000004b0       $pdata$?Is_bad_exception_allowed@@YAEPEBU_s_ESTypeList@@@Z 00000001800324b0     libvcruntime:frame.obj
 0004:000004bc       $pdata$??$__InternalCxxFrameHandler@V__FrameHandler4@@@@YA?AW4_EXCEPTION_DISPOSITION@@PEAUEHExceptionRecord@@PEA_KPEAU_CONTEXT@@PEAU_xDISPATCHER_CONTEXT@@PEAUFuncInfo4@FH4@@H1E@Z 00000001800324bc     libvcruntime:frame.obj
 0004:000004c8       $pdata$??$TypeMatchHelper@V__FrameHandler3@@@@YAHPEBU_s_HandlerType@@PEBU_s_CatchableType@@PEBU_s_ThrowInfo@@@Z 00000001800324c8     libvcruntime:frame.obj
 0004:000004d4       $pdata$??$TypeMatchHelper@V__FrameHandler4@@@@YAHPEAUHandlerType4@FH4@@PEBU_s_CatchableType@@PEBU_s_ThrowInfo@@@Z 00000001800324d4     libvcruntime:frame.obj
 0004:000004e0       $pdata$??$BuildCatchObjectHelperInternal@V__FrameHandler4@@@@YAHPEAUEHExceptionRecord@@PEAXPEAUHandlerType4@FH4@@PEBU_s_CatchableType@@@Z 00000001800324e0     libvcruntime:frame.obj
 0004:000004ec       $pdata$??$BuildCatchObjectInternal@V__FrameHandler4@@@@YAXPEAUEHExceptionRecord@@PEAXPEAUHandlerType4@FH4@@PEBU_s_CatchableType@@@Z 00000001800324ec     libvcruntime:frame.obj
 0004:000004f8       $pdata$??$FindHandler@V__FrameHandler4@@@@YAXPEAUEHExceptionRecord@@PEA_KPEAU_CONTEXT@@PEAU_xDISPATCHER_CONTEXT@@PEAUFuncInfo4@FH4@@EH1@Z 00000001800324f8     libvcruntime:frame.obj
 0004:00000504       $pdata$??$CatchIt@V__FrameHandler4@@@@YAXPEAUEHExceptionRecord@@PEA_KPEAU_CONTEXT@@PEAU_xDISPATCHER_CONTEXT@@PEAUFuncInfo4@FH4@@PEAUHandlerType4@4@PEBU_s_CatchableType@@PEAUTryBlockMapEntry4@4@H1EE@Z 0000000180032504     libvcruntime:frame.obj
 0004:00000510       $pdata$??$FindHandlerForForeignException@V__FrameHandler4@@@@YAXPEAUEHExceptionRecord@@PEA_KPEAU_CONTEXT@@PEAU_xDISPATCHER_CONTEXT@@PEAUFuncInfo4@FH4@@HH1@Z 0000000180032510     libvcruntime:frame.obj
 0004:00000540       $pdata$__vcrt_initialize_locks 0000000180032540     libvcruntime:locks.obj
 0004:0000054c       $pdata$__vcrt_uninitialize_locks 000000018003254c     libvcruntime:locks.obj
 0004:00000558       $pdata$__vcrt_FlsAlloc     0000000180032558     libvcruntime:winapi_downlevel.obj
 0004:00000564       $pdata$__vcrt_FlsFree      0000000180032564     libvcruntime:winapi_downlevel.obj
 0004:00000570       $pdata$__vcrt_FlsGetValue  0000000180032570     libvcruntime:winapi_downlevel.obj
 0004:0000057c       $pdata$__vcrt_FlsSetValue  000000018003257c     libvcruntime:winapi_downlevel.obj
 0004:00000588       $pdata$__vcrt_InitializeCriticalSectionEx 0000000180032588     libvcruntime:winapi_downlevel.obj
 0004:00000594       $pdata$?try_get_function@@YAPEAXW4function_id@?A0x87d18907@@QEBDQEBW4module_id@2@2@Z 0000000180032594     libvcruntime:winapi_downlevel.obj
 0004:000005e8       $pdata$_invalid_parameter_noinfo 00000001800325e8     libucrt:invalid_parameter.obj
 0004:000005f4       $pdata$_invalid_parameter_noinfo_noreturn 00000001800325f4     libucrt:invalid_parameter.obj
 0004:00000600       $pdata$_invoke_watson      0000000180032600     libucrt:invalid_parameter.obj
 0004:0000060c       $pdata$__acrt_call_reportfault 000000018003260c     libucrt:invalid_parameter.obj
 0004:00000618       $pdata$_invalid_parameter  0000000180032618     libucrt:invalid_parameter.obj
 0004:00000624       $pdata$strerror            0000000180032624     libucrt:strerror.obj
 0004:00000630       $pdata$fwprintf            0000000180032630     libucrt:assert.obj
 0004:0000063c       $pdata$swprintf            000000018003263c     libucrt:assert.obj
 0004:00000648       $pdata$_wassert            0000000180032648     libucrt:assert.obj
 0004:00000654       $pdata$??$common_assert_to_stderr@_W@@YAXQEB_W0I@Z 0000000180032654     libucrt:assert.obj
 0004:00000660       $pdata$??$common_assert_to_message_box@_W@@YAXQEB_W0IQEAX@Z 0000000180032660     libucrt:assert.obj
 0004:0000066c       $pdata$??$common_assert_to_message_box_build_string@_W@@YAXQEA_W_KQEB_W2IQEAX@Z 000000018003266c     libucrt:assert.obj
 0004:00000678       $pdata$_stricmp            0000000180032678     libucrt:stricmp.obj
 0004:00000684       $pdata$_stricmp_l          0000000180032684     libucrt:stricmp.obj
 0004:00000690       $pdata$??0_LocaleUpdate@@QEAA@QEAU__crt_locale_pointers@@@Z 0000000180032690     libucrt:stricmp.obj
 0004:0000069c       $pdata$_errno              000000018003269c     libucrt:errno.obj
 0004:000006a8       $pdata$__doserrno          00000001800326a8     libucrt:errno.obj
 0004:000006b4       $pdata$__acrt_errno_map_os_error 00000001800326b4     libucrt:errno.obj
 0004:000006c0       $pdata$abort               00000001800326c0     libucrt:abort.obj
 0004:000006cc       $pdata$__acrt_initialize_stdio 00000001800326cc     libucrt:_file.obj
 0004:000006d8       $pdata$__acrt_uninitialize_stdio 00000001800326d8     libucrt:_file.obj
 0004:000006e4       $pdata$__stdio_common_vfwprintf 00000001800326e4     libucrt:output.obj
 0004:000006f0       $pdata$__stdio_common_vfprintf 00000001800326f0     libucrt:output.obj
 0004:000006fc       $pdata$?validate_stream_is_ansi_if_required@?$__acrt_stdio_char_traits@D@@SA_NQEAU_iobuf@@@Z 00000001800326fc     libucrt:output.obj
 0004:00000708       $pdata$??$common_vsprintf@Vstandard_base@__crt_stdio_output@@_W@@YAH_KQEA_W0QEB_WQEAU__crt_locale_pointers@@QEAD@Z 0000000180032708     libucrt:output.obj
 0004:00000714       $pdata$?write_string_impl@?$output_adapter_common@DV?$stream_output_adapter@D@__crt_stdio_output@@@__crt_stdio_output@@IEBAXQEBDHQEAHAEAV__crt_deferred_errno_cache@@@Z 0000000180032714     libucrt:output.obj
 0004:00000720       $pdata$?process@?$output_processor@DV?$stream_output_adapter@D@__crt_stdio_output@@V?$standard_base@DV?$stream_output_adapter@D@__crt_stdio_output@@@2@@__crt_stdio_output@@QEAAHXZ 0000000180032720     libucrt:output.obj
 0004:0000072c       $pdata$?state_case_normal@?$output_processor@DV?$stream_output_adapter@D@__crt_stdio_output@@V?$standard_base@DV?$stream_output_adapter@D@__crt_stdio_output@@@2@@__crt_stdio_output@@AEAA_NXZ 000000018003272c     libucrt:output.obj
 0004:00000738       $pdata$?state_case_normal_tchar@?$output_processor@DV?$stream_output_adapter@D@__crt_stdio_output@@V?$standard_base@DV?$stream_output_adapter@D@__crt_stdio_output@@@2@@__crt_stdio_output@@AEAA_ND@Z 0000000180032738     libucrt:output.obj
 0004:00000744       $pdata$?parse_int_from_format_string@?$output_processor@DV?$stream_output_adapter@D@__crt_stdio_output@@V?$standard_base@DV?$stream_output_adapter@D@__crt_stdio_output@@@2@@__crt_stdio_output@@AEAA_NQEAH@Z 0000000180032744     libucrt:output.obj
 0004:00000750       $pdata$?state_case_size@?$output_processor@DV?$stream_output_adapter@D@__crt_stdio_output@@V?$standard_base@DV?$stream_output_adapter@D@__crt_stdio_output@@@2@@__crt_stdio_output@@AEAA_NXZ 0000000180032750     libucrt:output.obj
 0004:0000075c       $pdata$?state_case_type@?$output_processor@DV?$stream_output_adapter@D@__crt_stdio_output@@V?$standard_base@DV?$stream_output_adapter@D@__crt_stdio_output@@@2@@__crt_stdio_output@@AEAA_NXZ 000000018003275c     libucrt:output.obj
 0004:00000768       $pdata$?type_case_c_tchar@?$output_processor@DV?$stream_output_adapter@D@__crt_stdio_output@@V?$standard_base@DV?$stream_output_adapter@D@__crt_stdio_output@@@2@@__crt_stdio_output@@AEAA_ND@Z 0000000180032768     libucrt:output.obj
 0004:00000774       $pdata$?type_case_s@?$output_processor@DV?$stream_output_adapter@D@__crt_stdio_output@@V?$standard_base@DV?$stream_output_adapter@D@__crt_stdio_output@@@2@@__crt_stdio_output@@AEAA_NXZ 0000000180032774     libucrt:output.obj
 0004:00000780       $pdata$?type_case_a@?$output_processor@DV?$stream_output_adapter@D@__crt_stdio_output@@V?$standard_base@DV?$stream_output_adapter@D@__crt_stdio_output@@@2@@__crt_stdio_output@@AEAA_NXZ 0000000180032780     libucrt:output.obj
 0004:0000078c       $pdata$?type_case_integer@?$output_processor@DV?$stream_output_adapter@D@__crt_stdio_output@@V?$standard_base@DV?$stream_output_adapter@D@__crt_stdio_output@@@2@@__crt_stdio_output@@AEAA_NI_N@Z 000000018003278c     libucrt:output.obj
 0004:00000798       $pdata$?type_case_n@?$output_processor@DV?$stream_output_adapter@D@__crt_stdio_output@@V?$standard_base@DV?$stream_output_adapter@D@__crt_stdio_output@@@2@@__crt_stdio_output@@AEAA_NXZ 0000000180032798     libucrt:output.obj
 0004:00000798       $pdata$?type_case_n@?$output_processor@_WV?$stream_output_adapter@_W@__crt_stdio_output@@V?$standard_base@_WV?$stream_output_adapter@_W@__crt_stdio_output@@@2@@__crt_stdio_output@@AEAA_NXZ 0000000180032798     libucrt:output.obj
 0004:00000798       $pdata$?type_case_n@?$output_processor@_WV?$string_output_adapter@_W@__crt_stdio_output@@V?$standard_base@_WV?$string_output_adapter@_W@__crt_stdio_output@@@2@@__crt_stdio_output@@AEAA_NXZ 0000000180032798     libucrt:output.obj
 0004:000007a4       $pdata$?write_stored_string_tchar@?$output_processor@DV?$stream_output_adapter@D@__crt_stdio_output@@V?$standard_base@DV?$stream_output_adapter@D@__crt_stdio_output@@@2@@__crt_stdio_output@@AEAA_ND@Z 00000001800327a4     libucrt:output.obj
 0004:000007b0       $pdata$??R<lambda_36eeb330e99a4f0bf8a7da86d0894cb9>@@QEBAHXZ 00000001800327b0     libucrt:output.obj
 0004:000007bc       $pdata$?write_string_impl@?$output_adapter_common@_WV?$stream_output_adapter@_W@__crt_stdio_output@@@__crt_stdio_output@@IEBAXQEB_WHQEAHAEAV__crt_deferred_errno_cache@@@Z 00000001800327bc     libucrt:output.obj
 0004:000007c8       $pdata$?process@?$output_processor@_WV?$stream_output_adapter@_W@__crt_stdio_output@@V?$standard_base@_WV?$stream_output_adapter@_W@__crt_stdio_output@@@2@@__crt_stdio_output@@QEAAHXZ 00000001800327c8     libucrt:output.obj
 0004:000007d4       $pdata$?parse_int_from_format_string@?$output_processor@_WV?$stream_output_adapter@_W@__crt_stdio_output@@V?$standard_base@_WV?$stream_output_adapter@_W@__crt_stdio_output@@@2@@__crt_stdio_output@@AEAA_NQEAH@Z 00000001800327d4     libucrt:output.obj
 0004:000007d4       $pdata$?parse_int_from_format_string@?$output_processor@_WV?$string_output_adapter@_W@__crt_stdio_output@@V?$standard_base@_WV?$string_output_adapter@_W@__crt_stdio_output@@@2@@__crt_stdio_output@@AEAA_NQEAH@Z 00000001800327d4     libucrt:output.obj
 0004:000007e0       $pdata$?state_case_size@?$output_processor@_WV?$stream_output_adapter@_W@__crt_stdio_output@@V?$standard_base@_WV?$stream_output_adapter@_W@__crt_stdio_output@@@2@@__crt_stdio_output@@AEAA_NXZ 00000001800327e0     libucrt:output.obj
 0004:000007ec       $pdata$?state_case_type@?$output_processor@_WV?$stream_output_adapter@_W@__crt_stdio_output@@V?$standard_base@_WV?$stream_output_adapter@_W@__crt_stdio_output@@@2@@__crt_stdio_output@@AEAA_NXZ 00000001800327ec     libucrt:output.obj
 0004:000007f8       $pdata$?type_case_c_tchar@?$output_processor@_WV?$stream_output_adapter@_W@__crt_stdio_output@@V?$standard_base@_WV?$stream_output_adapter@_W@__crt_stdio_output@@@2@@__crt_stdio_output@@AEAA_N_W@Z 00000001800327f8     libucrt:output.obj
 0004:000007f8       $pdata$?type_case_c_tchar@?$output_processor@_WV?$string_output_adapter@_W@__crt_stdio_output@@V?$standard_base@_WV?$string_output_adapter@_W@__crt_stdio_output@@@2@@__crt_stdio_output@@AEAA_N_W@Z 00000001800327f8     libucrt:output.obj
 0004:00000804       $pdata$?type_case_Z@?$output_processor@_WV?$stream_output_adapter@_W@__crt_stdio_output@@V?$standard_base@_WV?$stream_output_adapter@_W@__crt_stdio_output@@@2@@__crt_stdio_output@@AEAA_NXZ 0000000180032804     libucrt:output.obj
 0004:00000804       $pdata$?type_case_Z@?$output_processor@_WV?$string_output_adapter@_W@__crt_stdio_output@@V?$standard_base@_WV?$string_output_adapter@_W@__crt_stdio_output@@@2@@__crt_stdio_output@@AEAA_NXZ 0000000180032804     libucrt:output.obj
 0004:00000810       $pdata$?type_case_s@?$output_processor@_WV?$stream_output_adapter@_W@__crt_stdio_output@@V?$standard_base@_WV?$stream_output_adapter@_W@__crt_stdio_output@@@2@@__crt_stdio_output@@AEAA_NXZ 0000000180032810     libucrt:output.obj
 0004:00000810       $pdata$?type_case_s@?$output_processor@_WV?$string_output_adapter@_W@__crt_stdio_output@@V?$standard_base@_WV?$string_output_adapter@_W@__crt_stdio_output@@@2@@__crt_stdio_output@@AEAA_NXZ 0000000180032810     libucrt:output.obj
 0004:0000081c       $pdata$?type_case_a@?$output_processor@_WV?$stream_output_adapter@_W@__crt_stdio_output@@V?$standard_base@_WV?$stream_output_adapter@_W@__crt_stdio_output@@@2@@__crt_stdio_output@@AEAA_NXZ 000000018003281c     libucrt:output.obj
 0004:0000081c       $pdata$?type_case_a@?$output_processor@_WV?$string_output_adapter@_W@__crt_stdio_output@@V?$standard_base@_WV?$string_output_adapter@_W@__crt_stdio_output@@@2@@__crt_stdio_output@@AEAA_NXZ 000000018003281c     libucrt:output.obj
 0004:00000828       $pdata$?type_case_integer@?$output_processor@_WV?$stream_output_adapter@_W@__crt_stdio_output@@V?$standard_base@_WV?$stream_output_adapter@_W@__crt_stdio_output@@@2@@__crt_stdio_output@@AEAA_NI_N@Z 0000000180032828     libucrt:output.obj
 0004:00000828       $pdata$?type_case_integer@?$output_processor@_WV?$string_output_adapter@_W@__crt_stdio_output@@V?$standard_base@_WV?$string_output_adapter@_W@__crt_stdio_output@@@2@@__crt_stdio_output@@AEAA_NI_N@Z 0000000180032828     libucrt:output.obj
 0004:00000834       $pdata$?write_stored_string_tchar@?$output_processor@_WV?$stream_output_adapter@_W@__crt_stdio_output@@V?$standard_base@_WV?$stream_output_adapter@_W@__crt_stdio_output@@@2@@__crt_stdio_output@@AEAA_N_W@Z 0000000180032834     libucrt:output.obj
 0004:00000840       $pdata$??R<lambda_b579ea784fd840951dfbcbdaebf709fd>@@QEBAHXZ 0000000180032840     libucrt:output.obj
 0004:0000084c       $pdata$?write_string@?$string_output_adapter@_W@__crt_stdio_output@@QEBAXQEB_WHQEAHAEAV__crt_deferred_errno_cache@@@Z 000000018003284c     libucrt:output.obj
 0004:00000858       $pdata$?process@?$output_processor@_WV?$string_output_adapter@_W@__crt_stdio_output@@V?$standard_base@_WV?$string_output_adapter@_W@__crt_stdio_output@@@2@@__crt_stdio_output@@QEAAHXZ 0000000180032858     libucrt:output.obj
 0004:00000864       $pdata$?state_case_size@?$output_processor@_WV?$string_output_adapter@_W@__crt_stdio_output@@V?$standard_base@_WV?$string_output_adapter@_W@__crt_stdio_output@@@2@@__crt_stdio_output@@AEAA_NXZ 0000000180032864     libucrt:output.obj
 0004:00000870       $pdata$?state_case_type@?$output_processor@_WV?$string_output_adapter@_W@__crt_stdio_output@@V?$standard_base@_WV?$string_output_adapter@_W@__crt_stdio_output@@@2@@__crt_stdio_output@@AEAA_NXZ 0000000180032870     libucrt:output.obj
 0004:0000087c       $pdata$?write_stored_string_tchar@?$output_processor@_WV?$string_output_adapter@_W@__crt_stdio_output@@V?$standard_base@_WV?$string_output_adapter@_W@__crt_stdio_output@@@2@@__crt_stdio_output@@AEAA_N_W@Z 000000018003287c     libucrt:output.obj
 0004:00000888       $pdata$??$write_multiple_characters@V?$string_output_adapter@_W@__crt_stdio_output@@D@__crt_stdio_output@@YAXAEBV?$string_output_adapter@_W@0@DHQEAH@Z 0000000180032888     libucrt:output.obj
 0004:00000894       $pdata$??$write_multiple_characters@V?$stream_output_adapter@_W@__crt_stdio_output@@D@__crt_stdio_output@@YAXAEBV?$stream_output_adapter@_W@0@DHQEAH@Z 0000000180032894     libucrt:output.obj
 0004:000008a0       $pdata$??$write_multiple_characters@V?$stream_output_adapter@D@__crt_stdio_output@@D@__crt_stdio_output@@YAXAEBV?$stream_output_adapter@D@0@DHQEAH@Z 00000001800328a0     libucrt:output.obj
 0004:000008ac       $pdata$??$ensure_buffer_is_big_enough@D@formatting_buffer@__crt_stdio_output@@QEAA_N_K@Z 00000001800328ac     libucrt:output.obj
 0004:000008b8       $pdata$??$ensure_buffer_is_big_enough@_W@formatting_buffer@__crt_stdio_output@@QEAA_N_K@Z 00000001800328b8     libucrt:output.obj
 0004:000008c4       $pdata$??$type_case_integer_parse_into_buffer@_K@?$output_processor@_WV?$stream_output_adapter@_W@__crt_stdio_output@@V?$standard_base@_WV?$stream_output_adapter@_W@__crt_stdio_output@@@2@@__crt_stdio_output@@AEAAX_KI_N@Z 00000001800328c4     libucrt:output.obj
 0004:000008c4       $pdata$??$type_case_integer_parse_into_buffer@_K@?$output_processor@_WV?$string_output_adapter@_W@__crt_stdio_output@@V?$standard_base@_WV?$string_output_adapter@_W@__crt_stdio_output@@@2@@__crt_stdio_output@@AEAAX_KI_N@Z 00000001800328c4     libucrt:output.obj
 0004:000008d0       $pdata$??$type_case_integer_parse_into_buffer@I@?$output_processor@_WV?$stream_output_adapter@_W@__crt_stdio_output@@V?$standard_base@_WV?$stream_output_adapter@_W@__crt_stdio_output@@@2@@__crt_stdio_output@@AEAAXII_N@Z 00000001800328d0     libucrt:output.obj
 0004:000008d0       $pdata$??$type_case_integer_parse_into_buffer@I@?$output_processor@_WV?$string_output_adapter@_W@__crt_stdio_output@@V?$standard_base@_WV?$string_output_adapter@_W@__crt_stdio_output@@@2@@__crt_stdio_output@@AEAAXII_N@Z 00000001800328d0     libucrt:output.obj
 0004:000008dc       $pdata$??$type_case_integer_parse_into_buffer@_K@?$output_processor@DV?$stream_output_adapter@D@__crt_stdio_output@@V?$standard_base@DV?$stream_output_adapter@D@__crt_stdio_output@@@2@@__crt_stdio_output@@AEAAX_KI_N@Z 00000001800328dc     libucrt:output.obj
 0004:000008e8       $pdata$??$type_case_integer_parse_into_buffer@I@?$output_processor@DV?$stream_output_adapter@D@__crt_stdio_output@@V?$standard_base@DV?$stream_output_adapter@D@__crt_stdio_output@@@2@@__crt_stdio_output@@AEAAXII_N@Z 00000001800328e8     libucrt:output.obj
 0004:000008f4       $pdata$??$?RV<lambda_fe5404e9642edbb7c8ae71e1dcfa4018>@@AEAV<lambda_36eeb330e99a4f0bf8a7da86d0894cb9>@@V<lambda_2fa474834de80dc12f7a3c6eddd7a366>@@@?$__crt_seh_guarded_call@H@@QEAAH$$QEAV<lambda_fe5404e9642edbb7c8ae71e1dcfa4018>@@AEAV<lambda_36eeb330e99a4f0bf8a7da86d0894cb9>@@$$QEAV<lambda_2fa474834de80dc12f7a3c6eddd7a366>@@@Z 00000001800328f4     libucrt:output.obj
 0004:00000900       $pdata$?fin$0@?0???$?RV<lambda_842d9ff0dc9ef11c61343bbaebe7f885>@@AEAV<lambda_c5860995281e5c4ce005b3de8f5874ee>@@V<lambda_d90129c13df834fdcbf8d2b88dafcf2d>@@@?$__crt_seh_guarded_call@X@@QEAAX$$QEAV<lambda_842d9ff0dc9ef11c61343bbaebe7f885>@@AEAV<lambda_c5860995281e5c4ce005b3de8f5874ee>@@$$QEAV<lambda_d90129c13df834fdcbf8d2b88dafcf2d>@@@Z@4HA 0000000180032900     libucrt:fflush.obj
 0004:00000900       $pdata$?fin$0@?0???$?RV<lambda_c376a267cfb53b6959b3b692ec76b120>@@AEAV<lambda_9a32fed5bf61b6b509b2d3f6003082a1>@@V<lambda_572fbb9fa0ab338edf41edfd4b5fcc8d>@@@?$__crt_seh_guarded_call@H@@QEAAH$$QEAV<lambda_c376a267cfb53b6959b3b692ec76b120>@@AEAV<lambda_9a32fed5bf61b6b509b2d3f6003082a1>@@$$QEAV<lambda_572fbb9fa0ab338edf41edfd4b5fcc8d>@@@Z@4HA 0000000180032900     libucrt:fflush.obj
 0004:00000900       $pdata$?fin$0@?0???$?RV<lambda_676bd5779251ec186b530f0a904b4b35>@@AEAV<lambda_b579ea784fd840951dfbcbdaebf709fd>@@V<lambda_10027885da78ada7fb00668d7e2e96b5>@@@?$__crt_seh_guarded_call@H@@QEAAH$$QEAV<lambda_676bd5779251ec186b530f0a904b4b35>@@AEAV<lambda_b579ea784fd840951dfbcbdaebf709fd>@@$$QEAV<lambda_10027885da78ada7fb00668d7e2e96b5>@@@Z@4HA 0000000180032900     libucrt:output.obj
 0004:00000900       $pdata$?fin$0@?0???$?RV<lambda_fe5404e9642edbb7c8ae71e1dcfa4018>@@AEAV<lambda_36eeb330e99a4f0bf8a7da86d0894cb9>@@V<lambda_2fa474834de80dc12f7a3c6eddd7a366>@@@?$__crt_seh_guarded_call@H@@QEAAH$$QEAV<lambda_fe5404e9642edbb7c8ae71e1dcfa4018>@@AEAV<lambda_36eeb330e99a4f0bf8a7da86d0894cb9>@@$$QEAV<lambda_2fa474834de80dc12f7a3c6eddd7a366>@@@Z@4HA 0000000180032900     libucrt:output.obj
 0004:00000900       $pdata$?fin$0@?0???$?RV<lambda_84ec643ea9557e2f7dc01bb0e9624395>@@AEAV<lambda_ca71763b3c0644891230e4f79ea54fa6>@@V<lambda_439a761618c59b0600e24586724d733b>@@@?$__crt_seh_guarded_call@H@@QEAAH$$QEAV<lambda_84ec643ea9557e2f7dc01bb0e9624395>@@AEAV<lambda_ca71763b3c0644891230e4f79ea54fa6>@@$$QEAV<lambda_439a761618c59b0600e24586724d733b>@@@Z@4HA 0000000180032900     libucrt:setvbuf.obj
 0004:0000090c       $pdata$??$?RV<lambda_676bd5779251ec186b530f0a904b4b35>@@AEAV<lambda_b579ea784fd840951dfbcbdaebf709fd>@@V<lambda_10027885da78ada7fb00668d7e2e96b5>@@@?$__crt_seh_guarded_call@H@@QEAAH$$QEAV<lambda_676bd5779251ec186b530f0a904b4b35>@@AEAV<lambda_b579ea784fd840951dfbcbdaebf709fd>@@$$QEAV<lambda_10027885da78ada7fb00668d7e2e96b5>@@@Z 000000018003290c     libucrt:output.obj
 0004:00000918       $pdata$_callnewh           0000000180032918     libucrt:new_handler.obj
 0004:00000924       $pdata$_query_new_handler  0000000180032924     libucrt:new_handler.obj
 0004:00000930       $pdata$_query_new_handler$fin$0 0000000180032930     libucrt:new_handler.obj
 0004:0000093c       $pdata$_initterm           000000018003293c     libucrt:initterm.obj
 0004:00000948       $pdata$_initterm_e         0000000180032948     libucrt:initterm.obj
 0004:00000954       $pdata$_seh_filter_exe     0000000180032954     libucrt:exception_filter.obj
 0004:00000960       $pdata$?try_cor_exit_process@@YAXI@Z 0000000180032960     libucrt:exit.obj
 0004:0000096c       $pdata$?exit_or_terminate_process@@YAXI@Z 000000018003296c     libucrt:exit.obj
 0004:00000978       $pdata$?common_exit@@YAXHW4_crt_exit_cleanup_mode@@W4_crt_exit_return_mode@@@Z 0000000180032978     libucrt:exit.obj
 0004:00000984       $pdata$??R<lambda_6e4b09c48022b2350581041d5f6b0c4c>@@QEBA@XZ 0000000180032984     libucrt:exit.obj
 0004:00000990       $pdata$?filt$0@?0???R<lambda_6e4b09c48022b2350581041d5f6b0c4c>@@QEBA@XZ@4HA 0000000180032990     libucrt:exit.obj
 0004:0000099c       $pdata$??$?RV<lambda_d80eeec6fff315bfe5c115232f3240e3>@@AEAV<lambda_6e4b09c48022b2350581041d5f6b0c4c>@@V<lambda_2358e3775559c9db80273638284d5e45>@@@?$__crt_seh_guarded_call@X@@QEAAX$$QEAV<lambda_d80eeec6fff315bfe5c115232f3240e3>@@AEAV<lambda_6e4b09c48022b2350581041d5f6b0c4c>@@$$QEAV<lambda_2358e3775559c9db80273638284d5e45>@@@Z 000000018003299c     libucrt:exit.obj
 0004:000009a8       $pdata$?fin$0@?0???$?RV<lambda_0ae27a3a962d80f24befdcbee591983d>@@AEAV<lambda_8d0ee55de4b1038c4002e0adecdf1839>@@V<lambda_dc504788e8f1664fe9b84e20bfb512f2>@@@?$__crt_seh_guarded_call@X@@QEAAX$$QEAV<lambda_0ae27a3a962d80f24befdcbee591983d>@@AEAV<lambda_8d0ee55de4b1038c4002e0adecdf1839>@@$$QEAV<lambda_dc504788e8f1664fe9b84e20bfb512f2>@@@Z@4HA 00000001800329a8     libucrt:per_thread_data.obj
 0004:000009a8       $pdata$?fin$0@?0???$?RV<lambda_2d41944a1d46af3157314b8a01080d33>@@AEAV<lambda_8f455de75cd7d7f24b4096f044d8b9e6>@@V<lambda_aa500f224e6afead328df44964fe2772>@@@?$__crt_seh_guarded_call@X@@QEAAX$$QEAV<lambda_2d41944a1d46af3157314b8a01080d33>@@AEAV<lambda_8f455de75cd7d7f24b4096f044d8b9e6>@@$$QEAV<lambda_aa500f224e6afead328df44964fe2772>@@@Z@4HA 00000001800329a8     libucrt:per_thread_data.obj
 0004:000009a8       $pdata$?fin$0@?0???$?RV<lambda_aa87e3671a710a21b5dc78c0bdf72e11>@@AEAV<lambda_92619d2358a28f41a33ba319515a20b9>@@V<lambda_6992ecaafeb10aed2b74cb1fae11a551>@@@?$__crt_seh_guarded_call@X@@QEAAX$$QEAV<lambda_aa87e3671a710a21b5dc78c0bdf72e11>@@AEAV<lambda_92619d2358a28f41a33ba319515a20b9>@@$$QEAV<lambda_6992ecaafeb10aed2b74cb1fae11a551>@@@Z@4HA 00000001800329a8     libucrt:per_thread_data.obj
 0004:000009a8       $pdata$?fin$0@?0???$?RV<lambda_f2e299630e499de9f9a165e60fcd3db5>@@AEAV<lambda_2ae9d31cdba2644fcbeaf08da7c24588>@@V<lambda_40d01ff24d0e7b3814fdbdcee8eab3c7>@@@?$__crt_seh_guarded_call@X@@QEAAX$$QEAV<lambda_f2e299630e499de9f9a165e60fcd3db5>@@AEAV<lambda_2ae9d31cdba2644fcbeaf08da7c24588>@@$$QEAV<lambda_40d01ff24d0e7b3814fdbdcee8eab3c7>@@@Z@4HA 00000001800329a8     libucrt:per_thread_data.obj
 0004:000009a8       $pdata$?fin$0@?0???$?RV<lambda_efdfa57d1f175319df784efa44bb7b81>@@AEAV<lambda_5f0a4c1567f8adc6734073e5d1e1b35c>@@V<lambda_2e8a7d3640ea6ccb4c2413664c2db6fd>@@@?$__crt_seh_guarded_call@X@@QEAAX$$QEAV<lambda_efdfa57d1f175319df784efa44bb7b81>@@AEAV<lambda_5f0a4c1567f8adc6734073e5d1e1b35c>@@$$QEAV<lambda_2e8a7d3640ea6ccb4c2413664c2db6fd>@@@Z@4HA 00000001800329a8     libucrt:mbctype.obj
 0004:000009a8       $pdata$?fin$0@?0???$?RV<lambda_450d765d439847d4c735a33c368b5fc0>@@AEAV<lambda_44731a7d0e6d81c3e6aa82d741081786>@@V<lambda_601a2a7da3b7a96e9554ac7215c4b07c>@@@?$__crt_seh_guarded_call@P6AXH@Z@@QEAAP6AXH@Z$$QEAV<lambda_450d765d439847d4c735a33c368b5fc0>@@AEAV<lambda_44731a7d0e6d81c3e6aa82d741081786>@@$$QEAV<lambda_601a2a7da3b7a96e9554ac7215c4b07c>@@@Z@4HA 00000001800329a8     libucrt:signal.obj
 0004:000009a8       $pdata$?fin$0@?0???$?RV<lambda_d80eeec6fff315bfe5c115232f3240e3>@@AEAV<lambda_6e4b09c48022b2350581041d5f6b0c4c>@@V<lambda_2358e3775559c9db80273638284d5e45>@@@?$__crt_seh_guarded_call@X@@QEAAX$$QEAV<lambda_d80eeec6fff315bfe5c115232f3240e3>@@AEAV<lambda_6e4b09c48022b2350581041d5f6b0c4c>@@$$QEAV<lambda_2358e3775559c9db80273638284d5e45>@@@Z@4HA 00000001800329a8     libucrt:exit.obj
 0004:000009a8       $pdata$?fin$0@?0???$?RV<lambda_7777bce6b2f8c936911f934f8298dc43>@@AEAV<lambda_f03950bc5685219e0bcd2087efbe011e>@@V<lambda_3883c3dff614d5e0c5f61bb1ac94921c>@@@?$__crt_seh_guarded_call@H@@QEAAH$$QEAV<lambda_7777bce6b2f8c936911f934f8298dc43>@@AEAV<lambda_f03950bc5685219e0bcd2087efbe011e>@@$$QEAV<lambda_3883c3dff614d5e0c5f61bb1ac94921c>@@@Z@4HA 00000001800329a8     libucrt:onexit.obj
 0004:000009b4       $pdata$_configure_narrow_argv 00000001800329b4     libucrt:argv_parsing.obj
 0004:000009c0       $pdata$__acrt_allocate_buffer_for_argv 00000001800329c0     libucrt:argv_parsing.obj
 0004:000009cc       $pdata$??$parse_command_line@D@@YAXPEADPEAPEAD0PEA_K2@Z 00000001800329cc     libucrt:argv_parsing.obj
 0004:000009d8       $pdata$__dcrt_uninitialize_environments_nolock 00000001800329d8     libucrt:environment_initialization.obj
 0004:000009e4       $pdata$??$common_initialize_environment_nolock@D@@YAHXZ 00000001800329e4     libucrt:environment_initialization.obj
 0004:000009f0       $pdata$??$uninitialize_environment_internal@D@@YAXAEAPEAPEAD@Z 00000001800329f0     libucrt:environment_initialization.obj
 0004:000009fc       $pdata$??$uninitialize_environment_internal@_W@@YAXAEAPEAPEA_W@Z 00000001800329fc     libucrt:environment_initialization.obj
 0004:00000a08       $pdata$??$free_environment@D@@YAXQEAPEAD@Z 0000000180032a08     libucrt:environment_initialization.obj
 0004:00000a08       $pdata$??$free_environment@_W@@YAXQEAPEA_W@Z 0000000180032a08     libucrt:environment_initialization.obj
 0004:00000a14       $pdata$??$create_environment@D@@YAQEAPEADQEAD@Z 0000000180032a14     libucrt:environment_initialization.obj
 0004:00000a20       $pdata$_execute_onexit_table 0000000180032a20     libucrt:onexit.obj
 0004:00000a2c       $pdata$??R<lambda_f03950bc5685219e0bcd2087efbe011e>@@QEBAHXZ 0000000180032a2c     libucrt:onexit.obj
 0004:00000a38       $pdata$??$?RV<lambda_7777bce6b2f8c936911f934f8298dc43>@@AEAV<lambda_f03950bc5685219e0bcd2087efbe011e>@@V<lambda_3883c3dff614d5e0c5f61bb1ac94921c>@@@?$__crt_seh_guarded_call@H@@QEAAH$$QEAV<lambda_7777bce6b2f8c936911f934f8298dc43>@@AEAV<lambda_f03950bc5685219e0bcd2087efbe011e>@@$$QEAV<lambda_3883c3dff614d5e0c5f61bb1ac94921c>@@@Z 0000000180032a38     libucrt:onexit.obj
 0004:00000a44       $pdata$__acrt_uninitialize 0000000180032a44     libucrt:initialization.obj
 0004:00000a50       $pdata$__acrt_uninitialize_critical 0000000180032a50     libucrt:initialization.obj
 0004:00000a5c       $pdata$__acrt_thread_attach 0000000180032a5c     libucrt:initialization.obj
 0004:00000a68       $pdata$__acrt_thread_detach 0000000180032a68     libucrt:initialization.obj
 0004:00000a74       $pdata$initialize_c        0000000180032a74     libucrt:initialization.obj
 0004:00000a80       $pdata$uninitialize_environment 0000000180032a80     libucrt:initialization.obj
 0004:00000a8c       $pdata$initialize_pointers 0000000180032a8c     libucrt:initialization.obj
 0004:00000a98       $pdata$uninitialize_allocated_memory 0000000180032a98     libucrt:initialization.obj
 0004:00000aa4       $pdata$uninitialize_allocated_io_buffers 0000000180032aa4     libucrt:initialization.obj
 0004:00000ab0       $pdata$terminate           0000000180032ab0     libucrt:terminate.obj
 0004:00000abc       $pdata$strcpy_s            0000000180032abc     libucrt:strcpy_s.obj
 0004:00000ac8       $pdata$_ischartype_l       0000000180032ac8     libucrt:atox.obj
 0004:00000ad4       $pdata$??$parse_integer@KV?$c_string_character_source@D@__crt_strtox@@@__crt_strtox@@YAKQEAU__crt_locale_pointers@@V?$c_string_character_source@D@0@H_N@Z 0000000180032ad4     libucrt:atox.obj
 0004:00000ae0       $pdata$??$parse_integer@KV?$c_string_character_source@_W@__crt_strtox@@@__crt_strtox@@YAKQEAU__crt_locale_pointers@@V?$c_string_character_source@_W@0@H_N@Z 0000000180032ae0     libucrt:atox.obj
 0004:00000af8       $pdata$__acrt_initialize_ptd 0000000180032af8     libucrt:per_thread_data.obj
 0004:00000b04       $pdata$__acrt_uninitialize_ptd 0000000180032b04     libucrt:per_thread_data.obj
 0004:00000b10       $pdata$__acrt_getptd       0000000180032b10     libucrt:per_thread_data.obj
 0004:00000b1c       $pdata$__acrt_getptd_head  0000000180032b1c     libucrt:per_thread_data.obj
 0004:00000b28       $pdata$__acrt_getptd_noexit 0000000180032b28     libucrt:per_thread_data.obj
 0004:00000b34       $pdata$__acrt_freeptd      0000000180032b34     libucrt:per_thread_data.obj
 0004:00000b40       $pdata$?destroy_fls@@YAXPEAX@Z 0000000180032b40     libucrt:per_thread_data.obj
 0004:00000b4c       $pdata$?replace_current_thread_locale_nolock@@YAXQEAU__acrt_ptd@@QEAU__crt_locale_data@@@Z 0000000180032b4c     libucrt:per_thread_data.obj
 0004:00000b58       $pdata$?construct_ptd_array@@YAXQEAU__acrt_ptd@@@Z 0000000180032b58     libucrt:per_thread_data.obj
 0004:00000b64       $pdata$?destroy_ptd_array@@YAXQEAU__acrt_ptd@@@Z 0000000180032b64     libucrt:per_thread_data.obj
 0004:00000b70       $pdata$??$?RV<lambda_0ae27a3a962d80f24befdcbee591983d>@@AEAV<lambda_8d0ee55de4b1038c4002e0adecdf1839>@@V<lambda_dc504788e8f1664fe9b84e20bfb512f2>@@@?$__crt_seh_guarded_call@X@@QEAAX$$QEAV<lambda_0ae27a3a962d80f24befdcbee591983d>@@AEAV<lambda_8d0ee55de4b1038c4002e0adecdf1839>@@$$QEAV<lambda_dc504788e8f1664fe9b84e20bfb512f2>@@@Z 0000000180032b70     libucrt:per_thread_data.obj
 0004:00000b7c       $pdata$??$?RV<lambda_aa87e3671a710a21b5dc78c0bdf72e11>@@AEAV<lambda_92619d2358a28f41a33ba319515a20b9>@@V<lambda_6992ecaafeb10aed2b74cb1fae11a551>@@@?$__crt_seh_guarded_call@X@@QEAAX$$QEAV<lambda_aa87e3671a710a21b5dc78c0bdf72e11>@@AEAV<lambda_92619d2358a28f41a33ba319515a20b9>@@$$QEAV<lambda_6992ecaafeb10aed2b74cb1fae11a551>@@@Z 0000000180032b7c     libucrt:per_thread_data.obj
 0004:00000b88       $pdata$??$?RV<lambda_f2e299630e499de9f9a165e60fcd3db5>@@AEAV<lambda_2ae9d31cdba2644fcbeaf08da7c24588>@@V<lambda_40d01ff24d0e7b3814fdbdcee8eab3c7>@@@?$__crt_seh_guarded_call@X@@QEAAX$$QEAV<lambda_f2e299630e499de9f9a165e60fcd3db5>@@AEAV<lambda_2ae9d31cdba2644fcbeaf08da7c24588>@@$$QEAV<lambda_40d01ff24d0e7b3814fdbdcee8eab3c7>@@@Z 0000000180032b88     libucrt:per_thread_data.obj
 0004:00000b94       $pdata$??$?RV<lambda_2d41944a1d46af3157314b8a01080d33>@@AEAV<lambda_8f455de75cd7d7f24b4096f044d8b9e6>@@V<lambda_aa500f224e6afead328df44964fe2772>@@@?$__crt_seh_guarded_call@X@@QEAAX$$QEAV<lambda_2d41944a1d46af3157314b8a01080d33>@@AEAV<lambda_8f455de75cd7d7f24b4096f044d8b9e6>@@$$QEAV<lambda_aa500f224e6afead328df44964fe2772>@@@Z 0000000180032b94     libucrt:per_thread_data.obj
 0004:00000ba0       $pdata$_calloc_base        0000000180032ba0     libucrt:calloc_base.obj
 0004:00000bac       $pdata$_free_base          0000000180032bac     libucrt:free_base.obj
 0004:00000bb8       $pdata$strncpy_s           0000000180032bb8     libucrt:strncpy_s.obj
 0004:00000bc4       $pdata$_itow_s             0000000180032bc4     libucrt:xtoa.obj
 0004:00000bd0       $pdata$??$common_xtox_s@K_W@@YAHKQEA_W_KI_N@Z 0000000180032bd0     libucrt:xtoa.obj
 0004:00000bdc       $pdata$??$common_xtox@K_W@@YAHKQEA_W_KI_N@Z 0000000180032bdc     libucrt:xtoa.obj
 0004:00000be8       $pdata$_set_error_mode     0000000180032be8     libucrt:set_error_mode.obj
 0004:00000bf4       $pdata$wcscat_s            0000000180032bf4     libucrt:wcscat_s.obj
 0004:00000c00       $pdata$wcscpy_s            0000000180032c00     libucrt:wcscpy_s.obj
 0004:00000c0c       $pdata$wcsncat_s           0000000180032c0c     libucrt:wcsncat_s.obj
 0004:00000c18       $pdata$__acrt_GetModuleFileNameA 0000000180032c18     libucrt:getmodulefilenamea.obj
 0004:00000c24       $pdata$??$__acrt_wcs_to_mbs_cp@U__crt_win32_buffer_no_resizing@@@@YAHQEB_WAEAV?$__crt_win32_buffer@DU__crt_win32_buffer_no_resizing@@@@I@Z 0000000180032c24     libucrt:getmodulefilenamea.obj
 0004:00000c30       $pdata$__acrt_show_wide_message_box 0000000180032c30     libucrt:crtmbox.obj
 0004:00000c3c       $pdata$fflush              0000000180032c3c     libucrt:fflush.obj
 0004:00000c48       $pdata$_fflush_nolock      0000000180032c48     libucrt:fflush.obj
 0004:00000c54       $pdata$__acrt_stdio_flush_nolock 0000000180032c54     libucrt:fflush.obj
 0004:00000c60       $pdata$?common_flush_all@@YAH_N@Z 0000000180032c60     libucrt:fflush.obj
 0004:00000c6c       $pdata$??$?RV<lambda_842d9ff0dc9ef11c61343bbaebe7f885>@@AEAV<lambda_c5860995281e5c4ce005b3de8f5874ee>@@V<lambda_d90129c13df834fdcbf8d2b88dafcf2d>@@@?$__crt_seh_guarded_call@X@@QEAAX$$QEAV<lambda_842d9ff0dc9ef11c61343bbaebe7f885>@@AEAV<lambda_c5860995281e5c4ce005b3de8f5874ee>@@$$QEAV<lambda_d90129c13df834fdcbf8d2b88dafcf2d>@@@Z 0000000180032c6c     libucrt:fflush.obj
 0004:00000c78       $pdata$??$?RV<lambda_886d6c58226a84441f68b9f2b8217b83>@@AEAV<lambda_ab61a845afdef5b7c387490eaf3616ee>@@V<lambda_f7f22ab5edc0698d5f6905b0d3f44752>@@@?$__crt_seh_guarded_call@X@@QEAAX$$QEAV<lambda_886d6c58226a84441f68b9f2b8217b83>@@AEAV<lambda_ab61a845afdef5b7c387490eaf3616ee>@@$$QEAV<lambda_f7f22ab5edc0698d5f6905b0d3f44752>@@@Z 0000000180032c78     libucrt:fflush.obj
 0004:00000c84       $pdata$?fin$0@?0???$?RV<lambda_886d6c58226a84441f68b9f2b8217b83>@@AEAV<lambda_ab61a845afdef5b7c387490eaf3616ee>@@V<lambda_f7f22ab5edc0698d5f6905b0d3f44752>@@@?$__crt_seh_guarded_call@X@@QEAAX$$QEAV<lambda_886d6c58226a84441f68b9f2b8217b83>@@AEAV<lambda_ab61a845afdef5b7c387490eaf3616ee>@@$$QEAV<lambda_f7f22ab5edc0698d5f6905b0d3f44752>@@@Z@4HA 0000000180032c84     libucrt:fflush.obj
 0004:00000c90       $pdata$??$?RV<lambda_c376a267cfb53b6959b3b692ec76b120>@@AEAV<lambda_9a32fed5bf61b6b509b2d3f6003082a1>@@V<lambda_572fbb9fa0ab338edf41edfd4b5fcc8d>@@@?$__crt_seh_guarded_call@H@@QEAAH$$QEAV<lambda_c376a267cfb53b6959b3b692ec76b120>@@AEAV<lambda_9a32fed5bf61b6b509b2d3f6003082a1>@@$$QEAV<lambda_572fbb9fa0ab338edf41edfd4b5fcc8d>@@@Z 0000000180032c90     libucrt:fflush.obj
 0004:00000c9c       $pdata$setvbuf             0000000180032c9c     libucrt:setvbuf.obj
 0004:00000ca8       $pdata$??R<lambda_ca71763b3c0644891230e4f79ea54fa6>@@QEBAHXZ 0000000180032ca8     libucrt:setvbuf.obj
 0004:00000cb4       $pdata$??$?RV<lambda_84ec643ea9557e2f7dc01bb0e9624395>@@AEAV<lambda_ca71763b3c0644891230e4f79ea54fa6>@@V<lambda_439a761618c59b0600e24586724d733b>@@@?$__crt_seh_guarded_call@H@@QEAAH$$QEAV<lambda_84ec643ea9557e2f7dc01bb0e9624395>@@AEAV<lambda_ca71763b3c0644891230e4f79ea54fa6>@@$$QEAV<lambda_439a761618c59b0600e24586724d733b>@@@Z 0000000180032cb4     libucrt:setvbuf.obj
 0004:00000cc0       $pdata$__acrt_get_sigabrt_handler 0000000180032cc0     libucrt:signal.obj
 0004:00000ccc       $pdata$raise               0000000180032ccc     libucrt:signal.obj
 0004:00000cd8       $pdata$raise$fin$0         0000000180032cd8     libucrt:signal.obj
 0004:00000ce4       $pdata$??$?RV<lambda_450d765d439847d4c735a33c368b5fc0>@@AEAV<lambda_44731a7d0e6d81c3e6aa82d741081786>@@V<lambda_601a2a7da3b7a96e9554ac7215c4b07c>@@@?$__crt_seh_guarded_call@P6AXH@Z@@QEAAP6AXH@Z$$QEAV<lambda_450d765d439847d4c735a33c368b5fc0>@@AEAV<lambda_44731a7d0e6d81c3e6aa82d741081786>@@$$QEAV<lambda_601a2a7da3b7a96e9554ac7215c4b07c>@@@Z 0000000180032ce4     libucrt:signal.obj
 0004:00000cf0       $pdata$__acrt_update_locale_info 0000000180032cf0     libucrt:locale_update.obj
 0004:00000cfc       $pdata$__acrt_update_multibyte_info 0000000180032cfc     libucrt:locale_update.obj
 0004:00000d08       $pdata$__acrt_uninitialize_locale 0000000180032d08     libucrt:wsetlocale.obj
 0004:00000d14       $pdata$??$?RV<lambda_410d79af7f07d98d83a3f525b3859a53>@@AEAV<lambda_3e16ef9562a7dcce91392c22ab16ea36>@@V<lambda_38119f0e861e05405d8a144b9b982f0a>@@@?$__crt_seh_guarded_call@X@@QEAAX$$QEAV<lambda_410d79af7f07d98d83a3f525b3859a53>@@AEAV<lambda_3e16ef9562a7dcce91392c22ab16ea36>@@$$QEAV<lambda_38119f0e861e05405d8a144b9b982f0a>@@@Z 0000000180032d14     libucrt:wsetlocale.obj
 0004:00000d20       $pdata$?fin$0@?0???$?RV<lambda_410d79af7f07d98d83a3f525b3859a53>@@AEAV<lambda_3e16ef9562a7dcce91392c22ab16ea36>@@V<lambda_38119f0e861e05405d8a144b9b982f0a>@@@?$__crt_seh_guarded_call@X@@QEAAX$$QEAV<lambda_410d79af7f07d98d83a3f525b3859a53>@@AEAV<lambda_3e16ef9562a7dcce91392c22ab16ea36>@@$$QEAV<lambda_38119f0e861e05405d8a144b9b982f0a>@@@Z@4HA 0000000180032d20     libucrt:wsetlocale.obj
 0004:00000d2c       $pdata$_malloc_base        0000000180032d2c     libucrt:malloc_base.obj
 0004:00000d38       $pdata$__acrt_initialize_winapi_thunks 0000000180032d38     libucrt:winapi_thunks.obj
 0004:00000d44       $pdata$__acrt_uninitialize_winapi_thunks 0000000180032d44     libucrt:winapi_thunks.obj
 0004:00000d50       $pdata$__acrt_AreFileApisANSI 0000000180032d50     libucrt:winapi_thunks.obj
 0004:00000d5c       $pdata$__acrt_FlsAlloc     0000000180032d5c     libucrt:winapi_thunks.obj
 0004:00000d68       $pdata$__acrt_FlsFree      0000000180032d68     libucrt:winapi_thunks.obj
 0004:00000d74       $pdata$__acrt_FlsGetValue  0000000180032d74     libucrt:winapi_thunks.obj
 0004:00000d80       $pdata$__acrt_FlsSetValue  0000000180032d80     libucrt:winapi_thunks.obj
 0004:00000d8c       $pdata$__acrt_InitializeCriticalSectionEx 0000000180032d8c     libucrt:winapi_thunks.obj
 0004:00000d98       $pdata$__acrt_LCMapStringEx 0000000180032d98     libucrt:winapi_thunks.obj
 0004:00000da4       $pdata$__acrt_LocaleNameToLCID 0000000180032da4     libucrt:winapi_thunks.obj
 0004:00000db0       $pdata$__acrt_MessageBoxW  0000000180032db0     libucrt:winapi_thunks.obj
 0004:00000dbc       $pdata$__acrt_AppPolicyGetProcessTerminationMethodInternal 0000000180032dbc     libucrt:winapi_thunks.obj
 0004:00000dc8       $pdata$__acrt_AppPolicyGetShowDeveloperDiagnosticInternal 0000000180032dc8     libucrt:winapi_thunks.obj
 0004:00000dd4       $pdata$__acrt_AppPolicyGetWindowingModelInternal 0000000180032dd4     libucrt:winapi_thunks.obj
 0004:00000de0       $pdata$__acrt_can_show_message_box 0000000180032de0     libucrt:winapi_thunks.obj
 0004:00000dec       $pdata$__acrt_get_parent_window 0000000180032dec     libucrt:winapi_thunks.obj
 0004:00000df8       $pdata$__acrt_is_interactive 0000000180032df8     libucrt:winapi_thunks.obj
 0004:00000e04       $pdata$?try_get_function@@YAPEAXW4function_id@?A0x391cf84c@@QEBDQEBW4module_id@2@2@Z 0000000180032e04     libucrt:winapi_thunks.obj
 0004:00000e10       $pdata$_fcloseall          0000000180032e10     libucrt:closeall.obj
 0004:00000e1c       $pdata$_fcloseall$fin$0    0000000180032e1c     libucrt:closeall.obj
 0004:00000e28       $pdata$__acrt_stdio_free_buffer_nolock 0000000180032e28     libucrt:_freebuf.obj
 0004:00000e34       $pdata$__acrt_initialize_lowio 0000000180032e34     libucrt:ioinit.obj
 0004:00000e40       $pdata$__acrt_initialize_lowio$fin$0 0000000180032e40     libucrt:ioinit.obj
 0004:00000e40       $pdata$__acrt_lowio_ensure_fh_exists$fin$0 0000000180032e40     libucrt:osfinfo.obj
 0004:00000e4c       $pdata$__acrt_uninitialize_lowio 0000000180032e4c     libucrt:ioinit.obj
 0004:00000e58       $pdata$?initialize_inherited_file_handles_nolock@@YAXXZ 0000000180032e58     libucrt:ioinit.obj
 0004:00000e64       $pdata$?initialize_stdio_handles_nolock@@YAXXZ 0000000180032e64     libucrt:ioinit.obj
 0004:00000e70       $pdata$wcstol              0000000180032e70     libucrt:strtox.obj
 0004:00000e7c       $pdata$strtol              0000000180032e7c     libucrt:strtox.obj
 0004:00000e88       $pdata$_mbtowc_l           0000000180032e88     libucrt:mbtowc.obj
 0004:00000e94       $pdata$wctomb_s            0000000180032e94     libucrt:wctomb.obj
 0004:00000ea0       $pdata$_wctomb_s_l         0000000180032ea0     libucrt:wctomb.obj
 0004:00000eac       $pdata$__acrt_fp_format    0000000180032eac     libucrt:cvt.obj
 0004:00000eb8       $pdata$?fp_format_e_internal@@YAHQEAD_KH_NIQEAU_strflt@@2QEAU__crt_locale_pointers@@@Z 0000000180032eb8     libucrt:cvt.obj
 0004:00000ec4       $pdata$?fp_format_e@@YAHQEBNQEAD_K12H_NIQEAU__crt_locale_pointers@@@Z 0000000180032ec4     libucrt:cvt.obj
 0004:00000ed0       $pdata$?fp_format_a@@YAHQEBNPEAD_KQEAD2H_NIQEAU__crt_locale_pointers@@@Z 0000000180032ed0     libucrt:cvt.obj
 0004:00000edc       $pdata$?fp_format_f_internal@@YAHQEAD_KHQEAU_strflt@@_NQEAU__crt_locale_pointers@@@Z 0000000180032edc     libucrt:cvt.obj
 0004:00000ee8       $pdata$?fp_format_g@@YAHQEBNQEAD_K12H_NIQEAU__crt_locale_pointers@@@Z 0000000180032ee8     libucrt:cvt.obj
 0004:00000ef4       $pdata$_fputwc_nolock      0000000180032ef4     libucrt:fputwc.obj
 0004:00000f00       $pdata$_fileno             0000000180032f00     libucrt:fileno.obj
 0004:00000f0c       $pdata$__acrt_stdio_begin_temporary_buffering_nolock 0000000180032f0c     libucrt:_sftbuf.obj
 0004:00000f18       $pdata$__acrt_stdio_end_temporary_buffering_nolock 0000000180032f18     libucrt:_sftbuf.obj
 0004:00000f24       $pdata$__acrt_initialize_locks 0000000180032f24     libucrt:locks.obj
 0004:00000f30       $pdata$__acrt_uninitialize_locks 0000000180032f30     libucrt:locks.obj
 0004:00000f3c       $pdata$__acrt_get_process_end_policy 0000000180032f3c     libucrt:win_policies.obj
 0004:00000f48       $pdata$__acrt_get_developer_information_policy 0000000180032f48     libucrt:win_policies.obj
 0004:00000f54       $pdata$__acrt_get_windowing_model_policy 0000000180032f54     libucrt:win_policies.obj
 0004:00000f60       $pdata$??$__acrt_mbs_to_wcs_cp@U__crt_win32_buffer_internal_dynamic_resizing@@@@YAHQEBDAEAV?$__crt_win32_buffer@_WU__crt_win32_buffer_internal_dynamic_resizing@@@@I@Z 0000000180032f60     libucrt:argv_wildcards.obj
 0004:00000f6c       $pdata$??$__acrt_wcs_to_mbs_cp@U__crt_win32_buffer_internal_dynamic_resizing@@@@YAHQEB_WAEAV?$__crt_win32_buffer@DU__crt_win32_buffer_internal_dynamic_resizing@@@@I@Z 0000000180032f6c     libucrt:argv_wildcards.obj
 0004:00000f78       $pdata$??$common_expand_argv_wildcards@D@@YAHQEAPEADQEAPEAPEAD@Z 0000000180032f78     libucrt:argv_wildcards.obj
 0004:00000f84       $pdata$??$copy_and_add_argument_to_buffer@D@@YAHQEBD0_KAEAV?$argument_list@D@?A0x5f5c8891@@@Z 0000000180032f84     libucrt:argv_wildcards.obj
 0004:00000f90       $pdata$??$expand_argument_wildcards@D@@YAHQEAD0AEAV?$argument_list@D@?A0x5f5c8891@@@Z 0000000180032f90     libucrt:argv_wildcards.obj
 0004:00000f9c       $pdata$__acrt_update_thread_multibyte_data 0000000180032f9c     libucrt:mbctype.obj
 0004:00000fa8       $pdata$__acrt_initialize_multibyte 0000000180032fa8     libucrt:mbctype.obj
 0004:00000fb4       $pdata$_setmbcp_nolock     0000000180032fb4     libucrt:mbctype.obj
 0004:00000fc0       $pdata$?getSystemCP@@YAHH@Z 0000000180032fc0     libucrt:mbctype.obj
 0004:00000fcc       $pdata$?setSBCS@@YAXPEAU__crt_multibyte_data@@@Z 0000000180032fcc     libucrt:mbctype.obj
 0004:00000fd8       $pdata$?update_thread_multibyte_data_internal@@YAPEAU__crt_multibyte_data@@QEAU__acrt_ptd@@QEAPEAU1@@Z 0000000180032fd8     libucrt:mbctype.obj
 0004:00000fe4       $pdata$?fin$0@?0??update_thread_multibyte_data_internal@@YAPEAU__crt_multibyte_data@@QEAU__acrt_ptd@@QEAPEAU1@@Z@4HA 0000000180032fe4     libucrt:mbctype.obj
 0004:00000ff0       $pdata$?setmbcp_internal@@YAHH_NQEAU__acrt_ptd@@QEAPEAU__crt_multibyte_data@@@Z 0000000180032ff0     libucrt:mbctype.obj
 0004:00000ffc       $pdata$?setSBUpLow@@YAXPEAU__crt_multibyte_data@@@Z 0000000180032ffc     libucrt:mbctype.obj
 0004:00001008       $pdata$??$?RV<lambda_efdfa57d1f175319df784efa44bb7b81>@@AEAV<lambda_5f0a4c1567f8adc6734073e5d1e1b35c>@@V<lambda_2e8a7d3640ea6ccb4c2413664c2db6fd>@@@?$__crt_seh_guarded_call@X@@QEAAX$$QEAV<lambda_efdfa57d1f175319df784efa44bb7b81>@@AEAV<lambda_5f0a4c1567f8adc6734073e5d1e1b35c>@@$$QEAV<lambda_2e8a7d3640ea6ccb4c2413664c2db6fd>@@@Z 0000000180033008     libucrt:mbctype.obj
 0004:00001014       $pdata$?x_ismbbtype_l@@YAHPEAU__crt_locale_pointers@@IHH@Z 0000000180033014     libucrt:ismbbyte.obj
 0004:00001020       $pdata$__acrt_initialize_command_line 0000000180033020     libucrt:argv_data.obj
 0004:0000102c       $pdata$__acrt_WideCharToMultiByte 000000018003302c     libucrt:widechartomultibyte.obj
 0004:00001038       $pdata$__dcrt_get_narrow_environment_from_os 0000000180033038     libucrt:get_environment_from_os.obj
 0004:00001044       $pdata$_recalloc_base      0000000180033044     libucrt:recalloc.obj
 0004:00001050       $pdata$__acrt_initialize_heap 0000000180033050     libucrt:heap_handle.obj
 0004:0000105c       $pdata$__acrt_execute_initializers 000000018003305c     libucrt:shared_initialization.obj
 0004:00001068       $pdata$__acrt_execute_uninitializers 0000000180033068     libucrt:shared_initialization.obj
 0004:00001074       $pdata$__pctype_func       0000000180033074     libucrt:ctype.obj
 0004:00001080       $pdata$iswctype            0000000180033080     libucrt:iswctype.obj
 0004:0000108c       $pdata$_isctype_l          000000018003308c     libucrt:isctype.obj
 0004:00001098       $pdata$__acrt_release_locale_ref 0000000180033098     libucrt:locale_refcounting.obj
 0004:000010a4       $pdata$__acrt_free_locale  00000001800330a4     libucrt:locale_refcounting.obj
 0004:000010b0       $pdata$__acrt_locale_free_lc_time_if_unreferenced 00000001800330b0     libucrt:locale_refcounting.obj
 0004:000010bc       $pdata$__acrt_update_thread_locale_data 00000001800330bc     libucrt:locale_refcounting.obj
 0004:000010c8       $pdata$__acrt_update_thread_locale_data$fin$0 00000001800330c8     libucrt:locale_refcounting.obj
 0004:000010d4       $pdata$_updatetlocinfoEx_nolock 00000001800330d4     libucrt:locale_refcounting.obj
 0004:000010e0       $pdata$_isleadbyte_l       00000001800330e0     libucrt:_wctype.obj
 0004:000010ec       $pdata$?__mbrtowc_utf8@__crt_mbstring@@YA_KPEA_WPEBD_KPEAU_Mbstatet@@@Z 00000001800330ec     libucrt:mbrtowc.obj
 0004:000010f8       $pdata$?__mbsrtowcs_utf8@__crt_mbstring@@YA_KPEA_WPEAPEBD_KPEAU_Mbstatet@@@Z 00000001800330f8     libucrt:mbrtowc.obj
 0004:00001104       $pdata$_commit             0000000180033104     libucrt:commit.obj
 0004:00001110       $pdata$??$?RV<lambda_a37b2b86f63e897a80ea819b0eb08c01>@@AEAV<lambda_38ce7e780aa69e748d6df282ebc68efe>@@V<lambda_99fb1378e971ab6e7edea83e3a7a83a2>@@@?$__crt_seh_guarded_call@H@@QEAAH$$QEAV<lambda_a37b2b86f63e897a80ea819b0eb08c01>@@AEAV<lambda_38ce7e780aa69e748d6df282ebc68efe>@@$$QEAV<lambda_99fb1378e971ab6e7edea83e3a7a83a2>@@@Z 0000000180033110     libucrt:commit.obj
 0004:0000111c       $pdata$?fin$0@?0???$?RV<lambda_751a882b2c74d4b022dec766aa51a29a>@@AEAV<lambda_628dfdc04ba53c8bfc02c9951375f3f5>@@V<lambda_f6c7be5f7998530c34de24c7437d6b54>@@@?$__crt_seh_guarded_call@H@@QEAAH$$QEAV<lambda_751a882b2c74d4b022dec766aa51a29a>@@AEAV<lambda_628dfdc04ba53c8bfc02c9951375f3f5>@@$$QEAV<lambda_f6c7be5f7998530c34de24c7437d6b54>@@@Z@4HA 000000018003311c     libucrt:close.obj
 0004:0000111c       $pdata$?fin$0@?0???$?RV<lambda_a37b2b86f63e897a80ea819b0eb08c01>@@AEAV<lambda_38ce7e780aa69e748d6df282ebc68efe>@@V<lambda_99fb1378e971ab6e7edea83e3a7a83a2>@@@?$__crt_seh_guarded_call@H@@QEAAH$$QEAV<lambda_a37b2b86f63e897a80ea819b0eb08c01>@@AEAV<lambda_38ce7e780aa69e748d6df282ebc68efe>@@$$QEAV<lambda_99fb1378e971ab6e7edea83e3a7a83a2>@@@Z@4HA 000000018003311c     libucrt:commit.obj
 0004:00001128       $pdata$_write              0000000180033128     libucrt:write.obj
 0004:00001134       $pdata$?fin$0@?0???$common_lseek@_J@@YA_JH_JH@Z@4HA 0000000180033134     libucrt:lseek.obj
 0004:00001134       $pdata$_write$fin$0        0000000180033134     libucrt:write.obj
 0004:00001140       $pdata$_write_nolock       0000000180033140     libucrt:write.obj
 0004:0000114c       $pdata$?write_double_translated_ansi_nolock@@YA?AUwrite_result@?A0x17268360@@HQEBDI@Z 000000018003314c     libucrt:write.obj
 0004:00001158       $pdata$?write_text_ansi_nolock@@YA?AUwrite_result@?A0x17268360@@HQEBDI@Z 0000000180033158     libucrt:write.obj
 0004:00001164       $pdata$?write_text_utf16le_nolock@@YA?AUwrite_result@?A0x17268360@@HQEBDI@Z 0000000180033164     libucrt:write.obj
 0004:00001170       $pdata$?write_text_utf8_nolock@@YA?AUwrite_result@?A0x17268360@@HQEBDI@Z 0000000180033170     libucrt:write.obj
 0004:0000117c       $pdata$__acrt_locale_free_monetary 000000018003317c     libucrt:initmon.obj
 0004:00001188       $pdata$__acrt_locale_free_numeric 0000000180033188     libucrt:initnum.obj
 0004:00001194       $pdata$__acrt_locale_free_time 0000000180033194     libucrt:inittime.obj
 0004:000011a0       $pdata$?free_crt_array_internal@@YAXQEAPEBX_K@Z 00000001800331a0     libucrt:inittime.obj
 0004:000011ac       $pdata$__acrt_GetStringTypeA 00000001800331ac     libucrt:getstringtypea.obj
 0004:000011b8       $pdata$__acrt_DownlevelLocaleNameToLCID 00000001800331b8     libucrt:lcidtoname_downlevel.obj
 0004:000011c4       $pdata$fclose              00000001800331c4     libucrt:fclose.obj
 0004:000011d0       $pdata$fclose$fin$0        00000001800331d0     libucrt:fclose.obj
 0004:000011dc       $pdata$_fclose_nolock      00000001800331dc     libucrt:fclose.obj
 0004:000011e8       $pdata$_get_osfhandle      00000001800331e8     libucrt:osfinfo.obj
 0004:000011f4       $pdata$_free_osfhnd        00000001800331f4     libucrt:osfinfo.obj
 0004:00001200       $pdata$__acrt_lowio_create_handle_array 0000000180033200     libucrt:osfinfo.obj
 0004:0000120c       $pdata$__acrt_lowio_destroy_handle_array 000000018003320c     libucrt:osfinfo.obj
 0004:00001218       $pdata$__acrt_lowio_ensure_fh_exists 0000000180033218     libucrt:osfinfo.obj
 0004:00001224       $pdata$?__c32rtomb_utf8@__crt_mbstring@@YA_KPEAD_UPEAU_Mbstatet@@@Z 0000000180033224     libucrt:c32rtomb.obj
 0004:00001230       $pdata$__acrt_fp_strflt_to_string 0000000180033230     libucrt:_fptostr.obj
 0004:0000123c       $pdata$memcpy_s            000000018003323c     libucrt:cfout.obj
 0004:00001248       $pdata$__acrt_fltout       0000000180033248     libucrt:cfout.obj
 0004:00001254       $pdata$?divide@__crt_strtox@@YA_KAEAUbig_integer@1@AEBU21@@Z 0000000180033254     libucrt:cfout.obj
 0004:00001260       $pdata$0$?divide@__crt_strtox@@YA_KAEAUbig_integer@1@AEBU21@@Z 0000000180033260     libucrt:cfout.obj
 0004:0000126c       $pdata$1$?divide@__crt_strtox@@YA_KAEAUbig_integer@1@AEBU21@@Z 000000018003326c     libucrt:cfout.obj
 0004:00001278       $pdata$__acrt_stdio_flush_and_write_narrow_nolock 0000000180033278     libucrt:_flsbuf.obj
 0004:00001284       $pdata$__acrt_stdio_flush_and_write_wide_nolock 0000000180033284     libucrt:_flsbuf.obj
 0004:00001290       $pdata$?stream_is_at_end_of_file_nolock@@YA_NV__crt_stdio_stream@@@Z 0000000180033290     libucrt:_flsbuf.obj
 0004:0000129c       $pdata$??$write_buffer_nolock@D@@YA_NDV__crt_stdio_stream@@@Z 000000018003329c     libucrt:_flsbuf.obj
 0004:000012a8       $pdata$??$write_buffer_nolock@_W@@YA_N_WV__crt_stdio_stream@@@Z 00000001800332a8     libucrt:_flsbuf.obj
 0004:000012b4       $pdata$_isatty             00000001800332b4     libucrt:isatty.obj
 0004:000012c0       $pdata$qsort               00000001800332c0     libucrt:qsort.obj
 0004:000012cc       $pdata$4$qsort             00000001800332cc     libucrt:qsort.obj
 0004:000012d8       $pdata$5$qsort             00000001800332d8     libucrt:qsort.obj
 0004:000012e4       $pdata$strpbrk             00000001800332e4     libucrt:strpbrk.obj
 0004:000012f0       $pdata$fallbackMethod      00000001800332f0     libucrt:strpbrk.obj
 0004:000012fc       $pdata$_mbsdec_l           00000001800332fc     libucrt:mbsdec.obj
 0004:00001308       $pdata$__acrt_LCMapStringA 0000000180033308     libucrt:lcmapstringa.obj
 0004:00001314       $pdata$?__acrt_LCMapStringA_stat@@YAHPEAU__crt_locale_pointers@@PEB_WKPEBDHPEADHHH@Z 0000000180033314     libucrt:lcmapstringa.obj
 0004:00001320       $pdata$?initialize_multibyte@@YAHXZ 0000000180033320     libucrt:multibyte_initializer.obj
 0004:0000132c       $pdata$_msize_base         000000018003332c     libucrt:msize.obj
 0004:00001338       $pdata$_realloc_base       0000000180033338     libucrt:realloc_base.obj
 0004:00001344       $pdata$?__mbrtoc32_utf8@__crt_mbstring@@YA_KPEA_UPEBD_KPEAU_Mbstatet@@@Z 0000000180033344     libucrt:mbrtoc32.obj
 0004:00001350       $pdata$??$common_lseek@_J@@YA_JH_JH@Z 0000000180033350     libucrt:lseek.obj
 0004:0000135c       $pdata$??$common_lseek_nolock@_J@@YA_JH_JH@Z 000000018003335c     libucrt:lseek.obj
 0004:00001368       $pdata$_putwch_nolock      0000000180033368     libucrt:putwch.obj
 0004:00001374       $pdata$_close              0000000180033374     libucrt:close.obj
 0004:00001380       $pdata$_close_nolock       0000000180033380     libucrt:close.obj
 0004:0000138c       $pdata$??$?RV<lambda_751a882b2c74d4b022dec766aa51a29a>@@AEAV<lambda_628dfdc04ba53c8bfc02c9951375f3f5>@@V<lambda_f6c7be5f7998530c34de24c7437d6b54>@@@?$__crt_seh_guarded_call@H@@QEAAH$$QEAV<lambda_751a882b2c74d4b022dec766aa51a29a>@@AEAV<lambda_628dfdc04ba53c8bfc02c9951375f3f5>@@$$QEAV<lambda_f6c7be5f7998530c34de24c7437d6b54>@@@Z 000000018003338c     libucrt:close.obj
 0004:00001398       $pdata$fegetenv            0000000180033398     libucrt:fegetenv.obj
 0004:000013a4       $pdata$fesetenv            00000001800333a4     libucrt:fesetenv.obj
 0004:000013b0       $pdata$feholdexcept        00000001800333b0     libucrt:feholdexcept.obj
 0004:000013c8       $pdata$__acrt_stdio_allocate_buffer_nolock 00000001800333c8     libucrt:_getbuf.obj
 0004:000013d4       $pdata$__dcrt_lowio_ensure_console_output_initialized 00000001800333d4     libucrt:initcon.obj
 0004:000013e0       $pdata$__dcrt_write_console 00000001800333e0     libucrt:initcon.obj
 0004:000013ec       $pdata$__dcrt_terminate_console_output 00000001800333ec     libucrt:initcon.obj
 0004:000013f8       $pdata$__acrt_fenv_set_control 00000001800333f8     libucrt:_fenvutils.obj
 0004:00001404       $pdata$_clearfp            0000000180033404     libucrt:ieee.obj
 0004:00001410       $pdata$_call_matherr       0000000180033410     libucrt:libm_error.obj
 0004:0000141c       $pdata$_exception_enabled  000000018003341c     libucrt:libm_error.obj
 0004:00001428       $pdata$_handle_error       0000000180033428     libucrt:libm_error.obj
 0004:00001434       $pdata$__acrt_initialize_fma3 0000000180033434     libucrt:fma3_available.obj
 0004:00001440       $pdata$_log_special_common 0000000180033440     libucrt:log_special.obj
 0004:0000144c       $pdata$_log10_special      000000018003344c     libucrt:log_special.obj
 0004:00001464       $pdata$_set_errno_from_matherr 0000000180033464     libucrt:fpexcept.obj
 0004:00001470       $pdata$_raise_exc          0000000180033470     libucrt:fpexcept.obj
 0004:0000147c       $pdata$_raise_exc_ex       000000018003347c     libucrt:fpexcept.obj
 0004:00001488       $pdata$_clrfp              0000000180033488     libucrt:fpctrl.obj
 0004:00001494       $pdata$_ctrlfp             0000000180033494     libucrt:fpctrl.obj
 0004:000014a0       $pdata$_ctrlfp$filt$0      00000001800334a0     libucrt:fpctrl.obj
 0004:000014ac       $pdata$_statfp             00000001800334ac     libucrt:fpctrl.obj
 0004:000014b8       $pdata$_set_statfp         00000001800334b8     libucrt:fpctrl.obj
 0004:000014c4       $pdata$?DloadGetSRWLockFunctionPointers@@YAEXZ 00000001800334c4     DelayImp:delayhlp.obj
 0004:000014d0       $pdata$?DloadObtainSection@@YAPEAXPEAK0@Z 00000001800334d0     DelayImp:delayhlp.obj
 0004:000014dc       $pdata$?DloadMakePermanentImageCommit@@YAXPEAX_K@Z 00000001800334dc     DelayImp:delayhlp.obj
 0004:000014e8       $pdata$?DloadProtectSection@@YAXKPEAK@Z 00000001800334e8     DelayImp:delayhlp.obj
 0004:000014f4       $pdata$?DloadAcquireSectionWriteAccess@@YAXXZ 00000001800334f4     DelayImp:delayhlp.obj
 0004:00001500       $pdata$?DloadReleaseSectionWriteAccess@@YAXXZ 0000000180033500     DelayImp:delayhlp.obj
 0004:0000150c       $pdata$__delayLoadHelper2  000000018003350c     DelayImp:delayhlp.obj
 0004:00001518       $pdata$__GSHandlerCheckCommon 0000000180033518     LIBCMT:gshandler.obj
 0004:00001524       $pdata$__GSHandlerCheck    0000000180033524     LIBCMT:gshandler.obj
 0004:00001530       $pdata$_IsNonwritableInCurrentImage 0000000180033530     LIBCMT:pesect.obj
 0004:0000153c       $pdata$_IsNonwritableInCurrentImage$filt$0 000000018003353c     LIBCMT:pesect.obj
 0004:00001548       $pdata$__GSHandlerCheck_SEH 0000000180033548     LIBCMT:gshandlerseh.obj
 0004:0000156c       $pdata$??$_Reallocate_grow_by@V<lambda_f3a66ab6a0570788f31503db83886f49>@@_KPEBD_K@?$basic_string@DU?$char_traits@D@std@@V?$allocator@D@2@@std@@AEAAAEAV01@_KV<lambda_f3a66ab6a0570788f31503db83886f49>@@_KPEBD2@Z 000000018003356c     scrypt_common.obj
 0004:00001578       $pdata$2$??$_Reallocate_grow_by@V<lambda_f3a66ab6a0570788f31503db83886f49>@@_KPEBD_K@?$basic_string@DU?$char_traits@D@std@@V?$allocator@D@2@@std@@AEAAAEAV01@_KV<lambda_f3a66ab6a0570788f31503db83886f49>@@_KPEBD2@Z 0000000180033578     scrypt_common.obj
 0004:00001584       $pdata$4$??$_Reallocate_grow_by@V<lambda_f3a66ab6a0570788f31503db83886f49>@@_KPEBD_K@?$basic_string@DU?$char_traits@D@std@@V?$allocator@D@2@@std@@AEAAAEAV01@_KV<lambda_f3a66ab6a0570788f31503db83886f49>@@_KPEBD2@Z 0000000180033584     scrypt_common.obj
 0004:00001590       $pdata$5$??$_Reallocate_grow_by@V<lambda_f3a66ab6a0570788f31503db83886f49>@@_KPEBD_K@?$basic_string@DU?$char_traits@D@std@@V?$allocator@D@2@@std@@AEAAAEAV01@_KV<lambda_f3a66ab6a0570788f31503db83886f49>@@_KPEBD2@Z 0000000180033590     scrypt_common.obj
 0004:0000159c       $pdata$6$??$_Reallocate_grow_by@V<lambda_f3a66ab6a0570788f31503db83886f49>@@_KPEBD_K@?$basic_string@DU?$char_traits@D@std@@V?$allocator@D@2@@std@@AEAAAEAV01@_KV<lambda_f3a66ab6a0570788f31503db83886f49>@@_KPEBD2@Z 000000018003359c     scrypt_common.obj
 0004:000015a8       $pdata$?_Xlen@?$basic_string@DU?$char_traits@D@std@@V?$allocator@D@2@@std@@CAXXZ 00000001800335a8     scrypt_common.obj
 0004:000015b4       $pdata$??$_Reallocate_grow_by@V<lambda_65e615be2a453ca0576c979606f46740>@@PEBD_K@?$basic_string@DU?$char_traits@D@std@@V?$allocator@D@2@@std@@AEAAAEAV01@_KV<lambda_65e615be2a453ca0576c979606f46740>@@PEBD_K@Z 00000001800335b4     scrypt_common.obj
 0004:000015c0       $pdata$3$??$_Reallocate_grow_by@V<lambda_65e615be2a453ca0576c979606f46740>@@PEBD_K@?$basic_string@DU?$char_traits@D@std@@V?$allocator@D@2@@std@@AEAAAEAV01@_KV<lambda_65e615be2a453ca0576c979606f46740>@@PEBD_K@Z 00000001800335c0     scrypt_common.obj
 0004:000015cc       $pdata$5$??$_Reallocate_grow_by@V<lambda_65e615be2a453ca0576c979606f46740>@@PEBD_K@?$basic_string@DU?$char_traits@D@std@@V?$allocator@D@2@@std@@AEAAAEAV01@_KV<lambda_65e615be2a453ca0576c979606f46740>@@PEBD_K@Z 00000001800335cc     scrypt_common.obj
 0004:000015d8       $pdata$6$??$_Reallocate_grow_by@V<lambda_65e615be2a453ca0576c979606f46740>@@PEBD_K@?$basic_string@DU?$char_traits@D@std@@V?$allocator@D@2@@std@@AEAAAEAV01@_KV<lambda_65e615be2a453ca0576c979606f46740>@@PEBD_K@Z 00000001800335d8     scrypt_common.obj
 0004:000015e4       $pdata$7$??$_Reallocate_grow_by@V<lambda_65e615be2a453ca0576c979606f46740>@@PEBD_K@?$basic_string@DU?$char_traits@D@std@@V?$allocator@D@2@@std@@AEAAAEAV01@_KV<lambda_65e615be2a453ca0576c979606f46740>@@PEBD_K@Z 00000001800335e4     scrypt_common.obj
 0004:000015f0       $pdata$?assign@?$basic_string@DU?$char_traits@D@std@@V?$allocator@D@2@@std@@QEAAAEAV12@QEBD@Z 00000001800335f0     scrypt_common.obj
 0004:000015fc       $pdata$??1?$basic_string@DU?$char_traits@D@std@@V?$allocator@D@2@@std@@QEAA@XZ 00000001800335fc     scrypt_common.obj
 0004:00001608       $pdata$?ScryptError@NodeScrypt@@YA?AV?$Local@VValue@v8@@@v8@@I@Z 0000000180033608     scrypt_common.obj
 0004:00001614       $pdata$?ScryptErrorDescr@?A0x816004c9@@YAPEBDI@Z 0000000180033614     scrypt_common.obj
 0004:00001620       $pdata$?_Throw_bad_array_new_length@std@@YAXXZ 0000000180033620     scrypt_common.obj
 0004:0000162c       $pdata$??_Gbad_array_new_length@stdext@@UEAAPEAXI@Z 000000018003362c     scrypt_common.obj
 0004:0000162c       $pdata$??_Gexception@stdext@@UEAAPEAXI@Z 000000018003362c     scrypt_common.obj
 0004:00001638       $pdata$?_Doraise@bad_alloc@stdext@@MEBAXXZ 0000000180033638     scrypt_common.obj
 0004:00001644       $pdata$?_Raise@exception@stdext@@QEBAXXZ 0000000180033644     scrypt_common.obj
 0004:00001650       $pdata$?params@@YAXAEBV?$FunctionCallbackInfo@VValue@v8@@@Nan@@@Z 0000000180033650     scrypt_params_async.obj
 0004:0000165c       $pdata$?dtor$0@?0??params@@YAXAEBV?$FunctionCallbackInfo@VValue@v8@@@Nan@@@Z@4HA 000000018003365c     scrypt_params_async.obj
 0004:00001668       $pdata$?dtor$1@?0??params@@YAXAEBV?$FunctionCallbackInfo@VValue@v8@@@Nan@@@Z@4HA 0000000180033668     scrypt_params_async.obj
 0004:00001674       $pdata$?HandleOKCallback@ScryptParamsAsyncWorker@@UEAAXXZ 0000000180033674     scrypt_params_async.obj
 0004:00001680       $pdata$?Execute@ScryptParamsAsyncWorker@@UEAAXXZ 0000000180033680     scrypt_params_async.obj
 0004:0000168c       $pdata$??_GScryptKDFAsyncWorker@@UEAAPEAXI@Z 000000018003368c     scrypt_kdf_async.obj
 0004:0000168c       $pdata$??_GScryptParamsAsyncWorker@@UEAAPEAXI@Z 000000018003368c     scrypt_params_async.obj
 0004:00001698       $pdata$??_GScryptAsyncWorker@@UEAAPEAXI@Z 0000000180033698     scrypt_params_async.obj
 0004:000016a4       $pdata$?WorkComplete@ScryptAsyncWorker@@UEAAXXZ 00000001800336a4     scrypt_params_async.obj
 0004:000016b0       $pdata$?HandleErrorCallback@ScryptAsyncWorker@@UEAAXXZ 00000001800336b0     scrypt_params_async.obj
 0004:000016bc       $pdata$??0ScryptAsyncWorker@@QEAA@PEAVCallback@Nan@@@Z 00000001800336bc     scrypt_params_async.obj
 0004:000016c8       $pdata$?dtor$2@?0???0ScryptAsyncWorker@@QEAA@PEAVCallback@Nan@@@Z@4HA 00000001800336c8     scrypt_params_async.obj
 0004:000016d4       $pdata$?AsyncExecuteComplete@Nan@@YAXPEAUuv_work_s@@@Z 00000001800336d4     scrypt_params_async.obj
 0004:000016e0       $pdata$??_GAsyncWorker@Nan@@UEAAPEAXI@Z 00000001800336e0     scrypt_params_async.obj
 0004:000016ec       $pdata$?HandleErrorCallback@AsyncWorker@Nan@@MEAAXXZ 00000001800336ec     scrypt_params_async.obj
 0004:000016f8       $pdata$?HandleOKCallback@AsyncWorker@Nan@@MEAAXXZ 00000001800336f8     scrypt_params_async.obj
 0004:00001704       $pdata$?WorkComplete@AsyncWorker@Nan@@UEAAXXZ 0000000180033704     scrypt_params_async.obj
 0004:00001710       $pdata$??1AsyncWorker@Nan@@UEAA@XZ 0000000180033710     scrypt_params_async.obj
 0004:0000171c       $pdata$?Call_@Callback@Nan@@AEBA?AV?$MaybeLocal@VValue@v8@@@v8@@PEAVIsolate@4@V?$Local@VObject@v8@@@4@HQEAV?$Local@VValue@v8@@@4@PEAVAsyncResource@2@@Z 000000018003371c     scrypt_params_async.obj
 0004:00001728       $pdata$?Call@Callback@Nan@@QEBA?AV?$Local@VValue@v8@@@v8@@HQEAV34@@Z 0000000180033728     scrypt_params_async.obj
 0004:00001734       $pdata$??1AsyncResource@Nan@@QEAA@XZ 0000000180033734     scrypt_params_async.obj
 0004:00001740       $pdata$??0AsyncResource@Nan@@QEAA@PEBDV?$Local@VObject@v8@@@v8@@@Z 0000000180033740     scrypt_params_async.obj
 0004:0000174c       $pdata$?paramsSync@@YAXAEBV?$FunctionCallbackInfo@VValue@v8@@@Nan@@@Z 000000018003374c     scrypt_params_sync.obj
 0004:00001758       $pdata$?kdf@@YAXAEBV?$FunctionCallbackInfo@VValue@v8@@@Nan@@@Z 0000000180033758     scrypt_kdf_async.obj
 0004:00001764       $pdata$?dtor$0@?0??kdf@@YAXAEBV?$FunctionCallbackInfo@VValue@v8@@@Nan@@@Z@4HA 0000000180033764     scrypt_kdf_async.obj
 0004:00001770       $pdata$?HandleOKCallback@ScryptKDFAsyncWorker@@UEAAXXZ 0000000180033770     scrypt_kdf_async.obj
 0004:0000177c       $pdata$?Execute@ScryptKDFAsyncWorker@@UEAAXXZ 000000018003377c     scrypt_kdf_async.obj
 0004:00001788       $pdata$??0ScryptKDFAsyncWorker@@QEAA@AEBV?$FunctionCallbackInfo@VValue@v8@@@Nan@@@Z 0000000180033788     scrypt_kdf_async.obj
 0004:00001794       $pdata$?dtor$0@?0???0ScryptHashAsyncWorker@@QEAA@AEBV?$FunctionCallbackInfo@VValue@v8@@@Nan@@@Z@4HA 0000000180033794     scrypt_hash_async.obj
 0004:00001794       $pdata$?dtor$0@?0???0ScryptKDFVerifyAsyncWorker@@QEAA@AEBV?$FunctionCallbackInfo@VValue@v8@@@Nan@@@Z@4HA 0000000180033794     scrypt_kdf-verify_async.obj
 0004:00001794       $pdata$?dtor$0@?0???0ScryptKDFAsyncWorker@@QEAA@AEBV?$FunctionCallbackInfo@VValue@v8@@@Nan@@@Z@4HA 0000000180033794     scrypt_kdf_async.obj
 0004:000017a0       $pdata$??0Params@NodeScrypt@@QEAA@AEBV?$Local@VObject@v8@@@v8@@@Z 00000001800337a0     scrypt_kdf_async.obj
 0004:000017ac       $pdata$?GetFromPersistent@AsyncWorker@Nan@@QEBA?AV?$Local@VValue@v8@@@v8@@PEBD@Z 00000001800337ac     scrypt_kdf_async.obj
 0004:000017b8       $pdata$?SaveToPersistent@AsyncWorker@Nan@@QEAAXPEBDAEBV?$Local@VValue@v8@@@v8@@@Z 00000001800337b8     scrypt_kdf_async.obj
 0004:000017c4       $pdata$?kdfSync@@YAXAEBV?$FunctionCallbackInfo@VValue@v8@@@Nan@@@Z 00000001800337c4     scrypt_kdf_sync.obj
 0004:000017d0       $pdata$?kdfVerifySync@@YAXAEBV?$FunctionCallbackInfo@VValue@v8@@@Nan@@@Z 00000001800337d0     scrypt_kdf-verify_sync.obj
 0004:000017dc       $pdata$?kdfVerify@@YAXAEBV?$FunctionCallbackInfo@VValue@v8@@@Nan@@@Z 00000001800337dc     scrypt_kdf-verify_async.obj
 0004:000017e8       $pdata$?dtor$0@?0??kdfVerify@@YAXAEBV?$FunctionCallbackInfo@VValue@v8@@@Nan@@@Z@4HA 00000001800337e8     scrypt_kdf-verify_async.obj
 0004:000017f4       $pdata$?HandleOKCallback@ScryptKDFVerifyAsyncWorker@@UEAAXXZ 00000001800337f4     scrypt_kdf-verify_async.obj
 0004:00001800       $pdata$?Execute@ScryptKDFVerifyAsyncWorker@@UEAAXXZ 0000000180033800     scrypt_kdf-verify_async.obj
 0004:0000180c       $pdata$??_GScryptKDFVerifyAsyncWorker@@UEAAPEAXI@Z 000000018003380c     scrypt_kdf-verify_async.obj
 0004:00001818       $pdata$??0ScryptKDFVerifyAsyncWorker@@QEAA@AEBV?$FunctionCallbackInfo@VValue@v8@@@Nan@@@Z 0000000180033818     scrypt_kdf-verify_async.obj
 0004:00001824       $pdata$?hashSync@@YAXAEBV?$FunctionCallbackInfo@VValue@v8@@@Nan@@@Z 0000000180033824     scrypt_hash_sync.obj
 0004:00001830       $pdata$?hash@@YAXAEBV?$FunctionCallbackInfo@VValue@v8@@@Nan@@@Z 0000000180033830     scrypt_hash_async.obj
 0004:0000183c       $pdata$?dtor$0@?0??hash@@YAXAEBV?$FunctionCallbackInfo@VValue@v8@@@Nan@@@Z@4HA 000000018003383c     scrypt_hash_async.obj
 0004:00001848       $pdata$?HandleOKCallback@ScryptHashAsyncWorker@@UEAAXXZ 0000000180033848     scrypt_hash_async.obj
 0004:00001854       $pdata$?Execute@ScryptHashAsyncWorker@@UEAAXXZ 0000000180033854     scrypt_hash_async.obj
 0004:00001860       $pdata$??_GScryptHashAsyncWorker@@UEAAPEAXI@Z 0000000180033860     scrypt_hash_async.obj
 0004:0000186c       $pdata$??0ScryptHashAsyncWorker@@QEAA@AEBV?$FunctionCallbackInfo@VValue@v8@@@Nan@@@Z 000000018003386c     scrypt_hash_async.obj
 0004:00001878       $pdata$??$New@VFunctionTemplate@v8@@@Nan@@YA?AV?$Local@VFunctionTemplate@v8@@@v8@@P6AXAEBV?$FunctionCallbackInfo@VValue@v8@@@0@@ZV?$Local@VValue@v8@@@2@@Z 0000000180033878     scrypt_node.obj
 0004:00001884       $pdata$?InitAll@@YAXV?$Local@VObject@v8@@@v8@@@Z 0000000180033884     scrypt_node.obj
 0004:00001890       $pdata$?FunctionCallbackWrapper@imp@Nan@@YAXAEBV?$FunctionCallbackInfo@VValue@v8@@@v8@@@Z 0000000180033890     scrypt_node.obj
 0004:0000189c       $pdata$?load_exe_hook@@YAP6A_JXZIPEAUDelayLoadInfo@@@Z 000000018003389c     win_delay_load_hook.obj
 0004:000018a8       $pdata$pickparams          00000001800338a8     scrypt_wrapper:pickparams.obj
 0004:000018b4       $pdata$Verify              00000001800338b4     scrypt_wrapper:keyderivation.obj
 0004:000018c0       $pdata$KDF                 00000001800338c0     scrypt_wrapper:keyderivation.obj
 0004:000018cc       $pdata$scryptenc_cpuperf   00000001800338cc     scrypt_lib:scryptenc_cpuperf.obj
 0004:000018d8       $pdata$PBKDF2_SHA256       00000001800338d8     scrypt_lib:sha256.obj
 0004:000018e4       $pdata$SHA256_Transform    00000001800338e4     scrypt_lib:sha256.obj
 0004:000018f0       $pdata$libcperciva_HMAC_SHA256_Final 00000001800338f0     scrypt_lib:sha256.obj
 0004:000018fc       $pdata$1$libcperciva_HMAC_SHA256_Final 00000001800338fc     scrypt_lib:sha256.obj
 0004:00001908       $pdata$2$libcperciva_HMAC_SHA256_Final 0000000180033908     scrypt_lib:sha256.obj
 0004:00001914       $pdata$libcperciva_SHA256_Final 0000000180033914     scrypt_lib:sha256.obj
 0004:00001920       $pdata$2$libcperciva_SHA256_Final 0000000180033920     scrypt_lib:sha256.obj
 0004:0000192c       $pdata$3$libcperciva_SHA256_Final 000000018003392c     scrypt_lib:sha256.obj
 0004:00001938       $pdata$libcperciva_SHA256_Update 0000000180033938     scrypt_lib:sha256.obj
 0004:00001944       $pdata$0$libcperciva_SHA256_Update 0000000180033944     scrypt_lib:sha256.obj
 0004:00001950       $pdata$1$libcperciva_SHA256_Update 0000000180033950     scrypt_lib:sha256.obj
 0004:0000195c       $pdata$2$libcperciva_SHA256_Update 000000018003395c     scrypt_lib:sha256.obj
 0004:00001968       $pdata$3$libcperciva_SHA256_Update 0000000180033968     scrypt_lib:sha256.obj
 0004:00001974       $pdata$libcperciva_HMAC_SHA256_Init 0000000180033974     scrypt_lib:sha256.obj
 0004:00001980       $pdata$0$libcperciva_HMAC_SHA256_Init 0000000180033980     scrypt_lib:sha256.obj
 0004:0000198c       $pdata$1$libcperciva_HMAC_SHA256_Init 000000018003398c     scrypt_lib:sha256.obj
 0004:00001998       $pdata$_crypto_scrypt      0000000180033998     scrypt_lib:crypto_scrypt.obj
 0004:000019a4       $pdata$crypto_scrypt       00000001800339a4     scrypt_lib:crypto_scrypt.obj
 0004:000019b0       $pdata$fprintf             00000001800339b0     scrypt_lib:warnp.obj
 0004:000019bc       $pdata$libcperciva_warnx   00000001800339bc     scrypt_lib:warnp.obj
 0004:000019c8       $pdata$1$libcperciva_warnx 00000001800339c8     scrypt_lib:warnp.obj
 0004:000019d4       $pdata$2$libcperciva_warnx 00000001800339d4     scrypt_lib:warnp.obj
 0004:000019e0       $pdata$blockmix_salsa8     00000001800339e0     scrypt_lib:crypto_scrypt_smix.obj
 0004:000019ec       $pdata$4$blockmix_salsa8   00000001800339ec     scrypt_lib:crypto_scrypt_smix.obj
 0004:000019f8       $pdata$5$blockmix_salsa8   00000001800339f8     scrypt_lib:crypto_scrypt_smix.obj
 0004:00001a04       $pdata$salsa20_8           0000000180033a04     scrypt_lib:crypto_scrypt_smix.obj
 0004:00001a10       $pdata$crypto_scrypt_smix  0000000180033a10     scrypt_lib:crypto_scrypt_smix.obj
 0004:00001a1c       $pdata$3$crypto_scrypt_smix 0000000180033a1c     scrypt_lib:crypto_scrypt_smix.obj
 0004:00001a28       $pdata$5$crypto_scrypt_smix 0000000180033a28     scrypt_lib:crypto_scrypt_smix.obj
 0004:00001a34       $pdata$6$crypto_scrypt_smix 0000000180033a34     scrypt_lib:crypto_scrypt_smix.obj
 0004:00001a40       $pdata$7$crypto_scrypt_smix 0000000180033a40     scrypt_lib:crypto_scrypt_smix.obj
 0004:00001a4c       $pdata$__GSHandlerCheck_EH4 0000000180033a4c     LIBCMT:gshandlereh4.obj
 0005:00000000       MsetTab                    0000000180034000     libvcruntime:memset.obj
 0005:00000050       MoveSmall                  0000000180034050     libvcruntime:memcpy.obj
 0006:00000060       $R000000                   0000000180035060     * linker generated manifest res *

 Exports

  ordinal    name

        1    _register_scrypt_
